
/home/mark/pico-inverter/build/pico-invrerter.elf:     file format elf32-littlearm

Sections:
Idx Name          Size      VMA       LMA       File off  Algn
  0 .boot2        00000100  10000000  10000000  00001000  2**0
                  CONTENTS, ALLOC, LOAD, READONLY, CODE
  1 .text         00002bf0  10000100  10000100  00001100  2**3
                  CONTENTS, ALLOC, LOAD, READONLY, CODE
  2 .rodata       00000154  10002cf0  10002cf0  00003cf0  2**2
                  CONTENTS, ALLOC, LOAD, READONLY, DATA
  3 .binary_info  0000001c  10002e44  10002e44  00003e44  2**2
                  CONTENTS, ALLOC, LOAD, READONLY, DATA
  4 .ram_vector_table 000000c0  20000000  20000000  00005000  2**2
                  ALLOC
  5 .data         00000334  200000c0  10002e60  000040c0  2**4
                  CONTENTS, ALLOC, LOAD, READONLY, CODE
  6 .uninitialized_data 00000000  200003f4  200003f4  000043f4  2**0
                  CONTENTS
  7 .scratch_x    00000000  20040000  20040000  000043f4  2**0
                  CONTENTS
  8 .scratch_y    00000000  20041000  20041000  000043f4  2**0
                  CONTENTS
  9 .bss          000004dc  200003f8  200003f8  00005000  2**3
                  ALLOC
 10 .heap         00000800  200008d4  200008d4  000043f4  2**2
                  CONTENTS, READONLY
 11 .stack1_dummy 00000800  20040000  20040000  00005000  2**2
                  ALLOC
 12 .stack_dummy  00000800  20041000  20041000  00004c00  2**5
                  CONTENTS, READONLY
 13 .ARM.attributes 00000028  00000000  00000000  00005400  2**0
                  CONTENTS, READONLY
 14 .comment      00000033  00000000  00000000  00005428  2**0
                  CONTENTS, READONLY
 15 .debug_info   00000489  00000000  00000000  0000545b  2**0
                  CONTENTS, READONLY, DEBUGGING, OCTETS
 16 .debug_abbrev 00000286  00000000  00000000  000058e4  2**0
                  CONTENTS, READONLY, DEBUGGING, OCTETS
 17 .debug_loc    0000040a  00000000  00000000  00005b6a  2**0
                  CONTENTS, READONLY, DEBUGGING, OCTETS
 18 .debug_aranges 00000080  00000000  00000000  00005f78  2**3
                  CONTENTS, READONLY, DEBUGGING, OCTETS
 19 .debug_line   000005a3  00000000  00000000  00005ff8  2**0
                  CONTENTS, READONLY, DEBUGGING, OCTETS
 20 .debug_str    0000038e  00000000  00000000  0000659b  2**0
                  CONTENTS, READONLY, DEBUGGING, OCTETS
 21 .debug_frame  00000088  00000000  00000000  0000692c  2**2
                  CONTENTS, READONLY, DEBUGGING, OCTETS
 22 .debug_ranges 00000050  00000000  00000000  000069b4  2**0
                  CONTENTS, READONLY, DEBUGGING, OCTETS

/home/mark/pico-inverter/build/pico-invrerter.elf:     file format elf32-littlearm


Disassembly of section .boot2:

10000000 <__boot2_start__>:
10000000:	4b32b500 	.word	0x4b32b500
10000004:	60582021 	.word	0x60582021
10000008:	21026898 	.word	0x21026898
1000000c:	60984388 	.word	0x60984388
10000010:	611860d8 	.word	0x611860d8
10000014:	4b2e6158 	.word	0x4b2e6158
10000018:	60992100 	.word	0x60992100
1000001c:	61592102 	.word	0x61592102
10000020:	22f02101 	.word	0x22f02101
10000024:	492b5099 	.word	0x492b5099
10000028:	21016019 	.word	0x21016019
1000002c:	20356099 	.word	0x20356099
10000030:	f844f000 	.word	0xf844f000
10000034:	42902202 	.word	0x42902202
10000038:	2106d014 	.word	0x2106d014
1000003c:	f0006619 	.word	0xf0006619
10000040:	6e19f834 	.word	0x6e19f834
10000044:	66192101 	.word	0x66192101
10000048:	66182000 	.word	0x66182000
1000004c:	f000661a 	.word	0xf000661a
10000050:	6e19f82c 	.word	0x6e19f82c
10000054:	6e196e19 	.word	0x6e196e19
10000058:	f0002005 	.word	0xf0002005
1000005c:	2101f82f 	.word	0x2101f82f
10000060:	d1f94208 	.word	0xd1f94208
10000064:	60992100 	.word	0x60992100
10000068:	6019491b 	.word	0x6019491b
1000006c:	60592100 	.word	0x60592100
10000070:	481b491a 	.word	0x481b491a
10000074:	21016001 	.word	0x21016001
10000078:	21eb6099 	.word	0x21eb6099
1000007c:	21a06619 	.word	0x21a06619
10000080:	f0006619 	.word	0xf0006619
10000084:	2100f812 	.word	0x2100f812
10000088:	49166099 	.word	0x49166099
1000008c:	60014814 	.word	0x60014814
10000090:	60992101 	.word	0x60992101
10000094:	2800bc01 	.word	0x2800bc01
10000098:	4700d000 	.word	0x4700d000
1000009c:	49134812 	.word	0x49134812
100000a0:	c8036008 	.word	0xc8036008
100000a4:	8808f380 	.word	0x8808f380
100000a8:	b5034708 	.word	0xb5034708
100000ac:	20046a99 	.word	0x20046a99
100000b0:	d0fb4201 	.word	0xd0fb4201
100000b4:	42012001 	.word	0x42012001
100000b8:	bd03d1f8 	.word	0xbd03d1f8
100000bc:	6618b502 	.word	0x6618b502
100000c0:	f7ff6618 	.word	0xf7ff6618
100000c4:	6e18fff2 	.word	0x6e18fff2
100000c8:	bd026e18 	.word	0xbd026e18
100000cc:	40020000 	.word	0x40020000
100000d0:	18000000 	.word	0x18000000
100000d4:	00070000 	.word	0x00070000
100000d8:	005f0300 	.word	0x005f0300
100000dc:	00002221 	.word	0x00002221
100000e0:	180000f4 	.word	0x180000f4
100000e4:	a0002022 	.word	0xa0002022
100000e8:	10000100 	.word	0x10000100
100000ec:	e000ed08 	.word	0xe000ed08
	...
100000fc:	7a4eb274 	.word	0x7a4eb274

Disassembly of section .text:

10000100 <__VECTOR_TABLE>:
10000100:	20042000 	.word	0x20042000
10000104:	100001f7 	.word	0x100001f7
10000108:	100001c3 	.word	0x100001c3
1000010c:	100001c5 	.word	0x100001c5
10000110:	100001c1 	.word	0x100001c1
10000114:	100001c1 	.word	0x100001c1
10000118:	100001c1 	.word	0x100001c1
1000011c:	100001c1 	.word	0x100001c1
10000120:	100001c1 	.word	0x100001c1
10000124:	100001c1 	.word	0x100001c1
10000128:	100001c1 	.word	0x100001c1
1000012c:	100001c7 	.word	0x100001c7
10000130:	100001c1 	.word	0x100001c1
10000134:	100001c1 	.word	0x100001c1
10000138:	100001c9 	.word	0x100001c9
1000013c:	100001cb 	.word	0x100001cb
10000140:	100001cd 	.word	0x100001cd
10000144:	100001cd 	.word	0x100001cd
10000148:	100001cd 	.word	0x100001cd
1000014c:	100001cd 	.word	0x100001cd
10000150:	100001cd 	.word	0x100001cd
10000154:	100001cd 	.word	0x100001cd
10000158:	100001cd 	.word	0x100001cd
1000015c:	100001cd 	.word	0x100001cd
10000160:	100001cd 	.word	0x100001cd
10000164:	100001cd 	.word	0x100001cd
10000168:	100001cd 	.word	0x100001cd
1000016c:	100001cd 	.word	0x100001cd
10000170:	100001cd 	.word	0x100001cd
10000174:	100001cd 	.word	0x100001cd
10000178:	100001cd 	.word	0x100001cd
1000017c:	100001cd 	.word	0x100001cd
10000180:	100001cd 	.word	0x100001cd
10000184:	100001cd 	.word	0x100001cd
10000188:	100001cd 	.word	0x100001cd
1000018c:	100001cd 	.word	0x100001cd
10000190:	100001cd 	.word	0x100001cd
10000194:	100001cd 	.word	0x100001cd
10000198:	100001cd 	.word	0x100001cd
1000019c:	100001cd 	.word	0x100001cd
100001a0:	100001cd 	.word	0x100001cd
100001a4:	100001cd 	.word	0x100001cd
100001a8:	100001cd 	.word	0x100001cd
100001ac:	100001cd 	.word	0x100001cd
100001b0:	100001cd 	.word	0x100001cd
100001b4:	100001cd 	.word	0x100001cd
100001b8:	100001cd 	.word	0x100001cd
100001bc:	100001cd 	.word	0x100001cd

100001c0 <isr_invalid>:
100001c0:	be00      	bkpt	0x0000

100001c2 <isr_nmi>:
100001c2:	be00      	bkpt	0x0000

100001c4 <isr_hardfault>:
100001c4:	be00      	bkpt	0x0000

100001c6 <isr_svcall>:
100001c6:	be00      	bkpt	0x0000

100001c8 <isr_pendsv>:
100001c8:	be00      	bkpt	0x0000

100001ca <isr_systick>:
100001ca:	be00      	bkpt	0x0000

100001cc <__unhandled_user_irq>:
100001cc:	f3ef 8005 	mrs	r0, IPSR
100001d0:	3810      	subs	r0, #16

100001d2 <unhandled_user_irq_num_in_r0>:
100001d2:	be00      	bkpt	0x0000

100001d4 <binary_info_header>:
100001d4:	7188ebf2 	.word	0x7188ebf2
100001d8:	10002e44 	.word	0x10002e44
100001dc:	10002e60 	.word	0x10002e60
100001e0:	10000234 	.word	0x10000234
100001e4:	e71aa390 	.word	0xe71aa390

100001e8 <_entry_point>:
100001e8:	2000      	movs	r0, #0
100001ea:	491f      	ldr	r1, [pc, #124]	; (10000268 <hold_non_core0_in_bootrom+0xa>)
100001ec:	6008      	str	r0, [r1, #0]
100001ee:	c806      	ldmia	r0!, {r1, r2}
100001f0:	f381 8808 	msr	MSP, r1
100001f4:	4710      	bx	r2

100001f6 <_reset_handler>:
100001f6:	481d      	ldr	r0, [pc, #116]	; (1000026c <hold_non_core0_in_bootrom+0xe>)
100001f8:	6800      	ldr	r0, [r0, #0]
100001fa:	2800      	cmp	r0, #0
100001fc:	d12f      	bne.n	1000025e <hold_non_core0_in_bootrom>
100001fe:	a40d      	add	r4, pc, #52	; (adr r4, 10000234 <data_cpy_table>)
10000200:	cc0e      	ldmia	r4!, {r1, r2, r3}
10000202:	2900      	cmp	r1, #0
10000204:	d002      	beq.n	1000020c <_reset_handler+0x16>
10000206:	f000 f812 	bl	1000022e <data_cpy>
1000020a:	e7f9      	b.n	10000200 <_reset_handler+0xa>
1000020c:	4918      	ldr	r1, [pc, #96]	; (10000270 <hold_non_core0_in_bootrom+0x12>)
1000020e:	4a19      	ldr	r2, [pc, #100]	; (10000274 <hold_non_core0_in_bootrom+0x16>)
10000210:	2000      	movs	r0, #0
10000212:	e000      	b.n	10000216 <bss_fill_test>

10000214 <bss_fill_loop>:
10000214:	c101      	stmia	r1!, {r0}

10000216 <bss_fill_test>:
10000216:	4291      	cmp	r1, r2
10000218:	d1fc      	bne.n	10000214 <bss_fill_loop>

1000021a <platform_entry>:
1000021a:	4917      	ldr	r1, [pc, #92]	; (10000278 <hold_non_core0_in_bootrom+0x1a>)
1000021c:	4788      	blx	r1
1000021e:	4917      	ldr	r1, [pc, #92]	; (1000027c <hold_non_core0_in_bootrom+0x1e>)
10000220:	4788      	blx	r1
10000222:	4917      	ldr	r1, [pc, #92]	; (10000280 <hold_non_core0_in_bootrom+0x22>)
10000224:	4788      	blx	r1
10000226:	be00      	bkpt	0x0000
10000228:	e7fd      	b.n	10000226 <platform_entry+0xc>

1000022a <data_cpy_loop>:
1000022a:	c901      	ldmia	r1!, {r0}
1000022c:	c201      	stmia	r2!, {r0}

1000022e <data_cpy>:
1000022e:	429a      	cmp	r2, r3
10000230:	d3fb      	bcc.n	1000022a <data_cpy_loop>
10000232:	4770      	bx	lr

10000234 <data_cpy_table>:
10000234:	10002e60 	.word	0x10002e60
10000238:	200000c0 	.word	0x200000c0
1000023c:	200003f4 	.word	0x200003f4
10000240:	10003194 	.word	0x10003194
10000244:	20040000 	.word	0x20040000
10000248:	20040000 	.word	0x20040000
1000024c:	10003194 	.word	0x10003194
10000250:	20041000 	.word	0x20041000
10000254:	20041000 	.word	0x20041000
10000258:	00000000 	.word	0x00000000
1000025c:	4770      	bx	lr

1000025e <hold_non_core0_in_bootrom>:
1000025e:	4809      	ldr	r0, [pc, #36]	; (10000284 <hold_non_core0_in_bootrom+0x26>)
10000260:	f001 fd6e 	bl	10001d40 <rom_func_lookup>
10000264:	4700      	bx	r0
10000266:	0000      	.short	0x0000
10000268:	e000ed08 	.word	0xe000ed08
1000026c:	d0000000 	.word	0xd0000000
10000270:	200003f8 	.word	0x200003f8
10000274:	200008d4 	.word	0x200008d4
10000278:	10001bb9 	.word	0x10001bb9
1000027c:	1000061d 	.word	0x1000061d
10000280:	10001cad 	.word	0x10001cad
10000284:	00005657 	.word	0x00005657

10000288 <__bi_50>:
10000288:	50520006 5360b3ab 10002d98              ..RP..`S.-..

10000294 <__bi_38>:
10000294:	50520006 02031c86 10002da8              ..RP.....-..

100002a0 <__bi_30>:
100002a0:	50520006 9da22254 10002db8              ..RPT"...-..

100002ac <__bi_22>:
100002ac:	50520005 68f465de 10003194              ..RP.e.h.1..

100002b8 <_init>:
100002b8:	b5f8      	push	{r3, r4, r5, r6, r7, lr}
100002ba:	46c0      	nop			; (mov r8, r8)

100002bc <deregister_tm_clones>:
100002bc:	4804      	ldr	r0, [pc, #16]	; (100002d0 <deregister_tm_clones+0x14>)
100002be:	4b05      	ldr	r3, [pc, #20]	; (100002d4 <deregister_tm_clones+0x18>)
100002c0:	b510      	push	{r4, lr}
100002c2:	4283      	cmp	r3, r0
100002c4:	d003      	beq.n	100002ce <deregister_tm_clones+0x12>
100002c6:	4b04      	ldr	r3, [pc, #16]	; (100002d8 <deregister_tm_clones+0x1c>)
100002c8:	2b00      	cmp	r3, #0
100002ca:	d000      	beq.n	100002ce <deregister_tm_clones+0x12>
100002cc:	4798      	blx	r3
100002ce:	bd10      	pop	{r4, pc}
100002d0:	200003f4 	.word	0x200003f4
100002d4:	200003f4 	.word	0x200003f4
100002d8:	00000000 	.word	0x00000000

100002dc <register_tm_clones>:
100002dc:	4806      	ldr	r0, [pc, #24]	; (100002f8 <register_tm_clones+0x1c>)
100002de:	4907      	ldr	r1, [pc, #28]	; (100002fc <register_tm_clones+0x20>)
100002e0:	1a09      	subs	r1, r1, r0
100002e2:	108b      	asrs	r3, r1, #2
100002e4:	0fc9      	lsrs	r1, r1, #31
100002e6:	18c9      	adds	r1, r1, r3
100002e8:	b510      	push	{r4, lr}
100002ea:	1049      	asrs	r1, r1, #1
100002ec:	d003      	beq.n	100002f6 <register_tm_clones+0x1a>
100002ee:	4b04      	ldr	r3, [pc, #16]	; (10000300 <register_tm_clones+0x24>)
100002f0:	2b00      	cmp	r3, #0
100002f2:	d000      	beq.n	100002f6 <register_tm_clones+0x1a>
100002f4:	4798      	blx	r3
100002f6:	bd10      	pop	{r4, pc}
100002f8:	200003f4 	.word	0x200003f4
100002fc:	200003f4 	.word	0x200003f4
10000300:	00000000 	.word	0x00000000

10000304 <__do_global_dtors_aux>:
10000304:	b510      	push	{r4, lr}
10000306:	4c07      	ldr	r4, [pc, #28]	; (10000324 <__do_global_dtors_aux+0x20>)
10000308:	7823      	ldrb	r3, [r4, #0]
1000030a:	2b00      	cmp	r3, #0
1000030c:	d109      	bne.n	10000322 <__do_global_dtors_aux+0x1e>
1000030e:	f7ff ffd5 	bl	100002bc <deregister_tm_clones>
10000312:	4b05      	ldr	r3, [pc, #20]	; (10000328 <__do_global_dtors_aux+0x24>)
10000314:	2b00      	cmp	r3, #0
10000316:	d002      	beq.n	1000031e <__do_global_dtors_aux+0x1a>
10000318:	4804      	ldr	r0, [pc, #16]	; (1000032c <__do_global_dtors_aux+0x28>)
1000031a:	e000      	b.n	1000031e <__do_global_dtors_aux+0x1a>
1000031c:	bf00      	nop
1000031e:	2301      	movs	r3, #1
10000320:	7023      	strb	r3, [r4, #0]
10000322:	bd10      	pop	{r4, pc}
10000324:	200007f8 	.word	0x200007f8
10000328:	00000000 	.word	0x00000000
1000032c:	10002cf0 	.word	0x10002cf0

10000330 <frame_dummy>:
10000330:	4b05      	ldr	r3, [pc, #20]	; (10000348 <frame_dummy+0x18>)
10000332:	b510      	push	{r4, lr}
10000334:	2b00      	cmp	r3, #0
10000336:	d003      	beq.n	10000340 <frame_dummy+0x10>
10000338:	4904      	ldr	r1, [pc, #16]	; (1000034c <frame_dummy+0x1c>)
1000033a:	4805      	ldr	r0, [pc, #20]	; (10000350 <frame_dummy+0x20>)
1000033c:	e000      	b.n	10000340 <frame_dummy+0x10>
1000033e:	bf00      	nop
10000340:	f7ff ffcc 	bl	100002dc <register_tm_clones>
10000344:	bd10      	pop	{r4, pc}
10000346:	46c0      	nop			; (mov r8, r8)
10000348:	00000000 	.word	0x00000000
1000034c:	200007fc 	.word	0x200007fc
10000350:	10002cf0 	.word	0x10002cf0

10000354 <ph0_program_init>:
10000354:	b5f0      	push	{r4, r5, r6, r7, lr}
10000356:	46c6      	mov	lr, r8
10000358:	0014      	movs	r4, r2
1000035a:	b500      	push	{lr}
1000035c:	3411      	adds	r4, #17
1000035e:	1c1e      	adds	r6, r3, #0
10000360:	0324      	lsls	r4, r4, #12
10000362:	01d3      	lsls	r3, r2, #7
10000364:	431c      	orrs	r4, r3
10000366:	4b19      	ldr	r3, [pc, #100]	; (100003cc <ph0_program_init+0x78>)
10000368:	b084      	sub	sp, #16
1000036a:	401c      	ands	r4, r3
1000036c:	9b0a      	ldr	r3, [sp, #40]	; 0x28
1000036e:	0015      	movs	r5, r2
10000370:	029a      	lsls	r2, r3, #10
10000372:	2380      	movs	r3, #128	; 0x80
10000374:	05db      	lsls	r3, r3, #23
10000376:	4313      	orrs	r3, r2
10000378:	9303      	str	r3, [sp, #12]
1000037a:	23e0      	movs	r3, #224	; 0xe0
1000037c:	0007      	movs	r7, r0
1000037e:	031b      	lsls	r3, r3, #12
10000380:	1c30      	adds	r0, r6, #0
10000382:	9401      	str	r4, [sp, #4]
10000384:	4688      	mov	r8, r1
10000386:	9302      	str	r3, [sp, #8]
10000388:	f002 f8fc 	bl	10002584 <__wrap___aeabi_f2uiz>
1000038c:	b284      	uxth	r4, r0
1000038e:	2000      	movs	r0, #0
10000390:	2c00      	cmp	r4, #0
10000392:	d00e      	beq.n	100003b2 <ph0_program_init+0x5e>
10000394:	0020      	movs	r0, r4
10000396:	f002 f8cd 	bl	10002534 <__wrap___aeabi_ui2f>
1000039a:	1c01      	adds	r1, r0, #0
1000039c:	1c30      	adds	r0, r6, #0
1000039e:	f002 f8a8 	bl	100024f2 <__wrap___aeabi_fsub>
100003a2:	2187      	movs	r1, #135	; 0x87
100003a4:	05c9      	lsls	r1, r1, #23
100003a6:	f002 f8be 	bl	10002526 <__wrap___aeabi_fmul>
100003aa:	f002 f8eb 	bl	10002584 <__wrap___aeabi_f2uiz>
100003ae:	b2c0      	uxtb	r0, r0
100003b0:	0200      	lsls	r0, r0, #8
100003b2:	0424      	lsls	r4, r4, #16
100003b4:	4304      	orrs	r4, r0
100003b6:	466b      	mov	r3, sp
100003b8:	002a      	movs	r2, r5
100003ba:	4641      	mov	r1, r8
100003bc:	0038      	movs	r0, r7
100003be:	9400      	str	r4, [sp, #0]
100003c0:	f002 fbfe 	bl	10002bc0 <pio_sm_init>
100003c4:	b004      	add	sp, #16
100003c6:	bc80      	pop	{r7}
100003c8:	46b8      	mov	r8, r7
100003ca:	bdf0      	pop	{r4, r5, r6, r7, pc}
100003cc:	9fffffff 	.word	0x9fffffff

100003d0 <ph1_program_init>:
100003d0:	b5f0      	push	{r4, r5, r6, r7, lr}
100003d2:	46c6      	mov	lr, r8
100003d4:	0015      	movs	r5, r2
100003d6:	b500      	push	{lr}
100003d8:	1c1e      	adds	r6, r3, #0
100003da:	4b1c      	ldr	r3, [pc, #112]	; (1000044c <ph1_program_init+0x7c>)
100003dc:	b084      	sub	sp, #16
100003de:	9302      	str	r3, [sp, #8]
100003e0:	9b0a      	ldr	r3, [sp, #40]	; 0x28
100003e2:	002c      	movs	r4, r5
100003e4:	015a      	lsls	r2, r3, #5
100003e6:	2380      	movs	r3, #128	; 0x80
100003e8:	051b      	lsls	r3, r3, #20
100003ea:	4313      	orrs	r3, r2
100003ec:	3408      	adds	r4, #8
100003ee:	9303      	str	r3, [sp, #12]
100003f0:	0324      	lsls	r4, r4, #12
100003f2:	01eb      	lsls	r3, r5, #7
100003f4:	431c      	orrs	r4, r3
100003f6:	4b16      	ldr	r3, [pc, #88]	; (10000450 <ph1_program_init+0x80>)
100003f8:	0007      	movs	r7, r0
100003fa:	401c      	ands	r4, r3
100003fc:	23c0      	movs	r3, #192	; 0xc0
100003fe:	049b      	lsls	r3, r3, #18
10000400:	431c      	orrs	r4, r3
10000402:	1c30      	adds	r0, r6, #0
10000404:	9401      	str	r4, [sp, #4]
10000406:	4688      	mov	r8, r1
10000408:	f002 f8bc 	bl	10002584 <__wrap___aeabi_f2uiz>
1000040c:	b284      	uxth	r4, r0
1000040e:	2000      	movs	r0, #0
10000410:	2c00      	cmp	r4, #0
10000412:	d00e      	beq.n	10000432 <ph1_program_init+0x62>
10000414:	0020      	movs	r0, r4
10000416:	f002 f88d 	bl	10002534 <__wrap___aeabi_ui2f>
1000041a:	1c01      	adds	r1, r0, #0
1000041c:	1c30      	adds	r0, r6, #0
1000041e:	f002 f868 	bl	100024f2 <__wrap___aeabi_fsub>
10000422:	2187      	movs	r1, #135	; 0x87
10000424:	05c9      	lsls	r1, r1, #23
10000426:	f002 f87e 	bl	10002526 <__wrap___aeabi_fmul>
1000042a:	f002 f8ab 	bl	10002584 <__wrap___aeabi_f2uiz>
1000042e:	b2c0      	uxtb	r0, r0
10000430:	0200      	lsls	r0, r0, #8
10000432:	0424      	lsls	r4, r4, #16
10000434:	4304      	orrs	r4, r0
10000436:	466b      	mov	r3, sp
10000438:	002a      	movs	r2, r5
1000043a:	4641      	mov	r1, r8
1000043c:	0038      	movs	r0, r7
1000043e:	9400      	str	r4, [sp, #0]
10000440:	f002 fbbe 	bl	10002bc0 <pio_sm_init>
10000444:	b004      	add	sp, #16
10000446:	bc80      	pop	{r7}
10000448:	46b8      	mov	r8, r7
1000044a:	bdf0      	pop	{r4, r5, r6, r7, pc}
1000044c:	800c0000 	.word	0x800c0000
10000450:	e0ffffff 	.word	0xe0ffffff

10000454 <ph2_program_init>:
10000454:	b5f0      	push	{r4, r5, r6, r7, lr}
10000456:	46c6      	mov	lr, r8
10000458:	b500      	push	{lr}
1000045a:	1c1e      	adds	r6, r3, #0
1000045c:	4b1d      	ldr	r3, [pc, #116]	; (100004d4 <ph2_program_init+0x80>)
1000045e:	b084      	sub	sp, #16
10000460:	9302      	str	r3, [sp, #8]
10000462:	9b0a      	ldr	r3, [sp, #40]	; 0x28
10000464:	0015      	movs	r5, r2
10000466:	015a      	lsls	r2, r3, #5
10000468:	2380      	movs	r3, #128	; 0x80
1000046a:	051b      	lsls	r3, r3, #20
1000046c:	4313      	orrs	r3, r2
1000046e:	9303      	str	r3, [sp, #12]
10000470:	002b      	movs	r3, r5
10000472:	1cec      	adds	r4, r5, #3
10000474:	330b      	adds	r3, #11
10000476:	031b      	lsls	r3, r3, #12
10000478:	01e4      	lsls	r4, r4, #7
1000047a:	431c      	orrs	r4, r3
1000047c:	4b16      	ldr	r3, [pc, #88]	; (100004d8 <ph2_program_init+0x84>)
1000047e:	0007      	movs	r7, r0
10000480:	401c      	ands	r4, r3
10000482:	2380      	movs	r3, #128	; 0x80
10000484:	049b      	lsls	r3, r3, #18
10000486:	431c      	orrs	r4, r3
10000488:	1c30      	adds	r0, r6, #0
1000048a:	9401      	str	r4, [sp, #4]
1000048c:	4688      	mov	r8, r1
1000048e:	f002 f879 	bl	10002584 <__wrap___aeabi_f2uiz>
10000492:	b284      	uxth	r4, r0
10000494:	2000      	movs	r0, #0
10000496:	2c00      	cmp	r4, #0
10000498:	d00e      	beq.n	100004b8 <ph2_program_init+0x64>
1000049a:	0020      	movs	r0, r4
1000049c:	f002 f84a 	bl	10002534 <__wrap___aeabi_ui2f>
100004a0:	1c01      	adds	r1, r0, #0
100004a2:	1c30      	adds	r0, r6, #0
100004a4:	f002 f825 	bl	100024f2 <__wrap___aeabi_fsub>
100004a8:	2187      	movs	r1, #135	; 0x87
100004aa:	05c9      	lsls	r1, r1, #23
100004ac:	f002 f83b 	bl	10002526 <__wrap___aeabi_fmul>
100004b0:	f002 f868 	bl	10002584 <__wrap___aeabi_f2uiz>
100004b4:	b2c0      	uxtb	r0, r0
100004b6:	0200      	lsls	r0, r0, #8
100004b8:	0424      	lsls	r4, r4, #16
100004ba:	4304      	orrs	r4, r0
100004bc:	466b      	mov	r3, sp
100004be:	002a      	movs	r2, r5
100004c0:	4641      	mov	r1, r8
100004c2:	0038      	movs	r0, r7
100004c4:	9400      	str	r4, [sp, #0]
100004c6:	f002 fb7b 	bl	10002bc0 <pio_sm_init>
100004ca:	b004      	add	sp, #16
100004cc:	bc80      	pop	{r7}
100004ce:	46b8      	mov	r8, r7
100004d0:	bdf0      	pop	{r4, r5, r6, r7, pc}
100004d2:	46c0      	nop			; (mov r8, r8)
100004d4:	800c0000 	.word	0x800c0000
100004d8:	e0ffffff 	.word	0xe0ffffff

100004dc <ui_program_init>:
100004dc:	b5f0      	push	{r4, r5, r6, r7, lr}
100004de:	46c6      	mov	lr, r8
100004e0:	b500      	push	{lr}
100004e2:	1c1e      	adds	r6, r3, #0
100004e4:	4b1d      	ldr	r3, [pc, #116]	; (1000055c <ui_program_init+0x80>)
100004e6:	b084      	sub	sp, #16
100004e8:	9302      	str	r3, [sp, #8]
100004ea:	9b0a      	ldr	r3, [sp, #40]	; 0x28
100004ec:	0015      	movs	r5, r2
100004ee:	015a      	lsls	r2, r3, #5
100004f0:	2380      	movs	r3, #128	; 0x80
100004f2:	051b      	lsls	r3, r3, #20
100004f4:	4313      	orrs	r3, r2
100004f6:	9303      	str	r3, [sp, #12]
100004f8:	002b      	movs	r3, r5
100004fa:	1cec      	adds	r4, r5, #3
100004fc:	330a      	adds	r3, #10
100004fe:	031b      	lsls	r3, r3, #12
10000500:	01e4      	lsls	r4, r4, #7
10000502:	431c      	orrs	r4, r3
10000504:	4b16      	ldr	r3, [pc, #88]	; (10000560 <ui_program_init+0x84>)
10000506:	0007      	movs	r7, r0
10000508:	401c      	ands	r4, r3
1000050a:	23c0      	movs	r3, #192	; 0xc0
1000050c:	049b      	lsls	r3, r3, #18
1000050e:	431c      	orrs	r4, r3
10000510:	1c30      	adds	r0, r6, #0
10000512:	9401      	str	r4, [sp, #4]
10000514:	4688      	mov	r8, r1
10000516:	f002 f835 	bl	10002584 <__wrap___aeabi_f2uiz>
1000051a:	b284      	uxth	r4, r0
1000051c:	2000      	movs	r0, #0
1000051e:	2c00      	cmp	r4, #0
10000520:	d00e      	beq.n	10000540 <ui_program_init+0x64>
10000522:	0020      	movs	r0, r4
10000524:	f002 f806 	bl	10002534 <__wrap___aeabi_ui2f>
10000528:	1c01      	adds	r1, r0, #0
1000052a:	1c30      	adds	r0, r6, #0
1000052c:	f001 ffe1 	bl	100024f2 <__wrap___aeabi_fsub>
10000530:	2187      	movs	r1, #135	; 0x87
10000532:	05c9      	lsls	r1, r1, #23
10000534:	f001 fff7 	bl	10002526 <__wrap___aeabi_fmul>
10000538:	f002 f824 	bl	10002584 <__wrap___aeabi_f2uiz>
1000053c:	b2c0      	uxtb	r0, r0
1000053e:	0200      	lsls	r0, r0, #8
10000540:	0424      	lsls	r4, r4, #16
10000542:	4304      	orrs	r4, r0
10000544:	466b      	mov	r3, sp
10000546:	002a      	movs	r2, r5
10000548:	4641      	mov	r1, r8
1000054a:	0038      	movs	r0, r7
1000054c:	9400      	str	r4, [sp, #0]
1000054e:	f002 fb37 	bl	10002bc0 <pio_sm_init>
10000552:	b004      	add	sp, #16
10000554:	bc80      	pop	{r7}
10000556:	46b8      	mov	r8, r7
10000558:	bdf0      	pop	{r4, r5, r6, r7, pc}
1000055a:	46c0      	nop			; (mov r8, r8)
1000055c:	800c0000 	.word	0x800c0000
10000560:	e0ffffff 	.word	0xe0ffffff

10000564 <iniclkpram>:
10000564:	b5f0      	push	{r4, r5, r6, r7, lr}
10000566:	46c6      	mov	lr, r8
10000568:	4b23      	ldr	r3, [pc, #140]	; (100005f8 <iniclkpram+0x94>)
1000056a:	b500      	push	{lr}
1000056c:	6819      	ldr	r1, [r3, #0]
1000056e:	4823      	ldr	r0, [pc, #140]	; (100005fc <iniclkpram+0x98>)
10000570:	f001 fc18 	bl	10001da4 <__wrap___aeabi_idiv>
10000574:	220a      	movs	r2, #10
10000576:	17c3      	asrs	r3, r0, #31
10000578:	055b      	lsls	r3, r3, #21
1000057a:	0d5f      	lsrs	r7, r3, #21
1000057c:	183f      	adds	r7, r7, r0
1000057e:	4b20      	ldr	r3, [pc, #128]	; (10000600 <iniclkpram+0x9c>)
10000580:	12ff      	asrs	r7, r7, #11
10000582:	601f      	str	r7, [r3, #0]
10000584:	4b1f      	ldr	r3, [pc, #124]	; (10000604 <iniclkpram+0xa0>)
10000586:	2000      	movs	r0, #0
10000588:	601a      	str	r2, [r3, #0]
1000058a:	2340      	movs	r3, #64	; 0x40
1000058c:	2400      	movs	r4, #0
1000058e:	4698      	mov	r8, r3
10000590:	4d1d      	ldr	r5, [pc, #116]	; (10000608 <iniclkpram+0xa4>)
10000592:	4e1e      	ldr	r6, [pc, #120]	; (1000060c <iniclkpram+0xa8>)
10000594:	e012      	b.n	100005bc <iniclkpram+0x58>
10000596:	0020      	movs	r0, r4
10000598:	f001 fc96 	bl	10001ec8 <__wrap___aeabi_i2d>
1000059c:	4a1c      	ldr	r2, [pc, #112]	; (10000610 <iniclkpram+0xac>)
1000059e:	4b1d      	ldr	r3, [pc, #116]	; (10000614 <iniclkpram+0xb0>)
100005a0:	f001 fc81 	bl	10001ea6 <__wrap___aeabi_dmul>
100005a4:	0002      	movs	r2, r0
100005a6:	000b      	movs	r3, r1
100005a8:	f001 fc56 	bl	10001e58 <__wrap___aeabi_dadd>
100005ac:	2200      	movs	r2, #0
100005ae:	4b1a      	ldr	r3, [pc, #104]	; (10000618 <iniclkpram+0xb4>)
100005b0:	f001 fc79 	bl	10001ea6 <__wrap___aeabi_dmul>
100005b4:	f001 fcc4 	bl	10001f40 <__wrap___aeabi_d2f>
100005b8:	f001 fffa 	bl	100025b0 <__wrap_sinf>
100005bc:	2185      	movs	r1, #133	; 0x85
100005be:	05c9      	lsls	r1, r1, #23
100005c0:	f001 ffb1 	bl	10002526 <__wrap___aeabi_fmul>
100005c4:	f001 ffea 	bl	1000259c <__wrap___aeabi_f2d>
100005c8:	f002 fb7a 	bl	10002cc0 <__nearbyint_veneer>
100005cc:	f001 fc94 	bl	10001ef8 <__wrap___aeabi_d2iz>
100005d0:	17c3      	asrs	r3, r0, #31
100005d2:	18c0      	adds	r0, r0, r3
100005d4:	4058      	eors	r0, r3
100005d6:	1122      	asrs	r2, r4, #4
100005d8:	0043      	lsls	r3, r0, #1
100005da:	4313      	orrs	r3, r2
100005dc:	4642      	mov	r2, r8
100005de:	1a10      	subs	r0, r2, r0
100005e0:	0400      	lsls	r0, r0, #16
100005e2:	061b      	lsls	r3, r3, #24
100005e4:	4338      	orrs	r0, r7
100005e6:	4318      	orrs	r0, r3
100005e8:	3401      	adds	r4, #1
100005ea:	c620      	stmia	r6!, {r5}
100005ec:	c501      	stmia	r5!, {r0}
100005ee:	2c20      	cmp	r4, #32
100005f0:	d1d1      	bne.n	10000596 <iniclkpram+0x32>
100005f2:	bc80      	pop	{r7}
100005f4:	46b8      	mov	r8, r7
100005f6:	bdf0      	pop	{r4, r5, r6, r7, pc}
100005f8:	2000031c 	.word	0x2000031c
100005fc:	07735940 	.word	0x07735940
10000600:	20000318 	.word	0x20000318
10000604:	200008a0 	.word	0x200008a0
10000608:	200004f8 	.word	0x200004f8
1000060c:	20000578 	.word	0x20000578
10000610:	51eb851f 	.word	0x51eb851f
10000614:	40091eb8 	.word	0x40091eb8
10000618:	3fa00000 	.word	0x3fa00000

1000061c <main>:
1000061c:	b5f0      	push	{r4, r5, r6, r7, lr}
1000061e:	46de      	mov	lr, fp
10000620:	4657      	mov	r7, sl
10000622:	464e      	mov	r6, r9
10000624:	4645      	mov	r5, r8
10000626:	b5e0      	push	{r5, r6, r7, lr}
10000628:	4e3e      	ldr	r6, [pc, #248]	; (10000724 <main+0x108>)
1000062a:	b085      	sub	sp, #20
1000062c:	f7ff ff9a 	bl	10000564 <iniclkpram>
10000630:	2101      	movs	r1, #1
10000632:	0030      	movs	r0, r6
10000634:	f002 fa42 	bl	10002abc <pio_claim_unused_sm>
10000638:	2101      	movs	r1, #1
1000063a:	0004      	movs	r4, r0
1000063c:	0030      	movs	r0, r6
1000063e:	f002 fa3d 	bl	10002abc <pio_claim_unused_sm>
10000642:	4d39      	ldr	r5, [pc, #228]	; (10000728 <main+0x10c>)
10000644:	4681      	mov	r9, r0
10000646:	2101      	movs	r1, #1
10000648:	0028      	movs	r0, r5
1000064a:	f002 fa37 	bl	10002abc <pio_claim_unused_sm>
1000064e:	2101      	movs	r1, #1
10000650:	9002      	str	r0, [sp, #8]
10000652:	0028      	movs	r0, r5
10000654:	f002 fa32 	bl	10002abc <pio_claim_unused_sm>
10000658:	4f34      	ldr	r7, [pc, #208]	; (1000072c <main+0x110>)
1000065a:	4680      	mov	r8, r0
1000065c:	0039      	movs	r1, r7
1000065e:	0030      	movs	r0, r6
10000660:	f002 fa4a 	bl	10002af8 <pio_add_program>
10000664:	0039      	movs	r1, r7
10000666:	4683      	mov	fp, r0
10000668:	0030      	movs	r0, r6
1000066a:	f002 fa45 	bl	10002af8 <pio_add_program>
1000066e:	0039      	movs	r1, r7
10000670:	4682      	mov	sl, r0
10000672:	0028      	movs	r0, r5
10000674:	f002 fa40 	bl	10002af8 <pio_add_program>
10000678:	27fe      	movs	r7, #254	; 0xfe
1000067a:	9003      	str	r0, [sp, #12]
1000067c:	492c      	ldr	r1, [pc, #176]	; (10000730 <main+0x114>)
1000067e:	0028      	movs	r0, r5
10000680:	f002 fa3a 	bl	10002af8 <pio_add_program>
10000684:	4b2b      	ldr	r3, [pc, #172]	; (10000734 <main+0x118>)
10000686:	05bf      	lsls	r7, r7, #22
10000688:	681b      	ldr	r3, [r3, #0]
1000068a:	0002      	movs	r2, r0
1000068c:	4641      	mov	r1, r8
1000068e:	0028      	movs	r0, r5
10000690:	9300      	str	r3, [sp, #0]
10000692:	1c3b      	adds	r3, r7, #0
10000694:	f7ff ff22 	bl	100004dc <ui_program_init>
10000698:	4641      	mov	r1, r8
1000069a:	2301      	movs	r3, #1
1000069c:	408b      	lsls	r3, r1
1000069e:	682a      	ldr	r2, [r5, #0]
100006a0:	0021      	movs	r1, r4
100006a2:	4313      	orrs	r3, r2
100006a4:	602b      	str	r3, [r5, #0]
100006a6:	4b24      	ldr	r3, [pc, #144]	; (10000738 <main+0x11c>)
100006a8:	465a      	mov	r2, fp
100006aa:	681b      	ldr	r3, [r3, #0]
100006ac:	0030      	movs	r0, r6
100006ae:	9300      	str	r3, [sp, #0]
100006b0:	1c3b      	adds	r3, r7, #0
100006b2:	f7ff fe4f 	bl	10000354 <ph0_program_init>
100006b6:	4b21      	ldr	r3, [pc, #132]	; (1000073c <main+0x120>)
100006b8:	4652      	mov	r2, sl
100006ba:	681b      	ldr	r3, [r3, #0]
100006bc:	4649      	mov	r1, r9
100006be:	0030      	movs	r0, r6
100006c0:	9300      	str	r3, [sp, #0]
100006c2:	1c3b      	adds	r3, r7, #0
100006c4:	f7ff fe84 	bl	100003d0 <ph1_program_init>
100006c8:	4b1d      	ldr	r3, [pc, #116]	; (10000740 <main+0x124>)
100006ca:	9a03      	ldr	r2, [sp, #12]
100006cc:	681b      	ldr	r3, [r3, #0]
100006ce:	9902      	ldr	r1, [sp, #8]
100006d0:	0028      	movs	r0, r5
100006d2:	9300      	str	r3, [sp, #0]
100006d4:	1c3b      	adds	r3, r7, #0
100006d6:	f7ff febd 	bl	10000454 <ph2_program_init>
100006da:	2001      	movs	r0, #1
100006dc:	f002 f9de 	bl	10002a9c <dma_claim_unused_channel>
100006e0:	4a18      	ldr	r2, [pc, #96]	; (10000744 <main+0x128>)
100006e2:	02c1      	lsls	r1, r0, #11
100006e4:	400a      	ands	r2, r1
100006e6:	03e3      	lsls	r3, r4, #15
100006e8:	4313      	orrs	r3, r2
100006ea:	4a17      	ldr	r2, [pc, #92]	; (10000748 <main+0x12c>)
100006ec:	00a4      	lsls	r4, r4, #2
100006ee:	4013      	ands	r3, r2
100006f0:	430b      	orrs	r3, r1
100006f2:	21a0      	movs	r1, #160	; 0xa0
100006f4:	05c9      	lsls	r1, r1, #23
100006f6:	468c      	mov	ip, r1
100006f8:	4a14      	ldr	r2, [pc, #80]	; (1000074c <main+0x130>)
100006fa:	4915      	ldr	r1, [pc, #84]	; (10000750 <main+0x134>)
100006fc:	431a      	orrs	r2, r3
100006fe:	0183      	lsls	r3, r0, #6
10000700:	4463      	add	r3, ip
10000702:	6019      	str	r1, [r3, #0]
10000704:	4913      	ldr	r1, [pc, #76]	; (10000754 <main+0x138>)
10000706:	2000      	movs	r0, #0
10000708:	468c      	mov	ip, r1
1000070a:	2120      	movs	r1, #32
1000070c:	4464      	add	r4, ip
1000070e:	605c      	str	r4, [r3, #4]
10000710:	6099      	str	r1, [r3, #8]
10000712:	60da      	str	r2, [r3, #12]
10000714:	b005      	add	sp, #20
10000716:	bcf0      	pop	{r4, r5, r6, r7}
10000718:	46bb      	mov	fp, r7
1000071a:	46b2      	mov	sl, r6
1000071c:	46a9      	mov	r9, r5
1000071e:	46a0      	mov	r8, r4
10000720:	bdf0      	pop	{r4, r5, r6, r7, pc}
10000722:	46c0      	nop			; (mov r8, r8)
10000724:	50200000 	.word	0x50200000
10000728:	50300000 	.word	0x50300000
1000072c:	10002cf0 	.word	0x10002cf0
10000730:	10002d1c 	.word	0x10002d1c
10000734:	2000032c 	.word	0x2000032c
10000738:	20000320 	.word	0x20000320
1000073c:	20000324 	.word	0x20000324
10000740:	20000328 	.word	0x20000328
10000744:	ff007ffd 	.word	0xff007ffd
10000748:	ffff87ff 	.word	0xffff87ff
1000074c:	00200559 	.word	0x00200559
10000750:	20000578 	.word	0x20000578
10000754:	50200010 	.word	0x50200010

10000758 <running_on_fpga>:
10000758:	4b02      	ldr	r3, [pc, #8]	; (10000764 <running_on_fpga+0xc>)
1000075a:	6818      	ldr	r0, [r3, #0]
1000075c:	0780      	lsls	r0, r0, #30
1000075e:	0fc0      	lsrs	r0, r0, #31
10000760:	4770      	bx	lr
10000762:	46c0      	nop			; (mov r8, r8)
10000764:	4006c000 	.word	0x4006c000

10000768 <hw_claim_lock>:
10000768:	f3ef 8010 	mrs	r0, PRIMASK
1000076c:	b672      	cpsid	i
1000076e:	4a03      	ldr	r2, [pc, #12]	; (1000077c <hw_claim_lock+0x14>)
10000770:	6813      	ldr	r3, [r2, #0]
10000772:	2b00      	cmp	r3, #0
10000774:	d0fc      	beq.n	10000770 <hw_claim_lock+0x8>
10000776:	f3bf 8f5f 	dmb	sy
1000077a:	4770      	bx	lr
1000077c:	d000012c 	.word	0xd000012c

10000780 <hw_claim_unlock>:
10000780:	f3bf 8f5f 	dmb	sy
10000784:	2200      	movs	r2, #0
10000786:	4b02      	ldr	r3, [pc, #8]	; (10000790 <hw_claim_unlock+0x10>)
10000788:	601a      	str	r2, [r3, #0]
1000078a:	f380 8810 	msr	PRIMASK, r0
1000078e:	4770      	bx	lr
10000790:	d000012c 	.word	0xd000012c

10000794 <hw_claim_or_assert>:
10000794:	b570      	push	{r4, r5, r6, lr}
10000796:	f3ef 8c10 	mrs	ip, PRIMASK
1000079a:	b672      	cpsid	i
1000079c:	4d0d      	ldr	r5, [pc, #52]	; (100007d4 <hw_claim_or_assert+0x40>)
1000079e:	682b      	ldr	r3, [r5, #0]
100007a0:	2b00      	cmp	r3, #0
100007a2:	d0fc      	beq.n	1000079e <hw_claim_or_assert+0xa>
100007a4:	f3bf 8f5f 	dmb	sy
100007a8:	2407      	movs	r4, #7
100007aa:	08cb      	lsrs	r3, r1, #3
100007ac:	18c6      	adds	r6, r0, r3
100007ae:	5cc0      	ldrb	r0, [r0, r3]
100007b0:	2301      	movs	r3, #1
100007b2:	400c      	ands	r4, r1
100007b4:	40a3      	lsls	r3, r4
100007b6:	001c      	movs	r4, r3
100007b8:	4004      	ands	r4, r0
100007ba:	4203      	tst	r3, r0
100007bc:	d107      	bne.n	100007ce <hw_claim_or_assert+0x3a>
100007be:	4303      	orrs	r3, r0
100007c0:	7033      	strb	r3, [r6, #0]
100007c2:	f3bf 8f5f 	dmb	sy
100007c6:	602c      	str	r4, [r5, #0]
100007c8:	f38c 8810 	msr	PRIMASK, ip
100007cc:	bd70      	pop	{r4, r5, r6, pc}
100007ce:	0010      	movs	r0, r2
100007d0:	f001 fa70 	bl	10001cb4 <panic>
100007d4:	d000012c 	.word	0xd000012c

100007d8 <hw_claim_unused_from_range>:
100007d8:	b5f8      	push	{r3, r4, r5, r6, r7, lr}
100007da:	4647      	mov	r7, r8
100007dc:	46ce      	mov	lr, r9
100007de:	4688      	mov	r8, r1
100007e0:	b580      	push	{r7, lr}
100007e2:	f3ef 8c10 	mrs	ip, PRIMASK
100007e6:	b672      	cpsid	i
100007e8:	4d21      	ldr	r5, [pc, #132]	; (10000870 <hw_claim_unused_from_range+0x98>)
100007ea:	682c      	ldr	r4, [r5, #0]
100007ec:	2c00      	cmp	r4, #0
100007ee:	d0fc      	beq.n	100007ea <hw_claim_unused_from_range+0x12>
100007f0:	f3bf 8f5f 	dmb	sy
100007f4:	429a      	cmp	r2, r3
100007f6:	d82c      	bhi.n	10000852 <hw_claim_unused_from_range+0x7a>
100007f8:	08d4      	lsrs	r4, r2, #3
100007fa:	2707      	movs	r7, #7
100007fc:	5d05      	ldrb	r5, [r0, r4]
100007fe:	1906      	adds	r6, r0, r4
10000800:	2401      	movs	r4, #1
10000802:	4017      	ands	r7, r2
10000804:	40bc      	lsls	r4, r7
10000806:	422c      	tst	r4, r5
10000808:	d01f      	beq.n	1000084a <hw_claim_unused_from_range+0x72>
1000080a:	2107      	movs	r1, #7
1000080c:	2701      	movs	r7, #1
1000080e:	4689      	mov	r9, r1
10000810:	e009      	b.n	10000826 <hw_claim_unused_from_range+0x4e>
10000812:	08d4      	lsrs	r4, r2, #3
10000814:	5d05      	ldrb	r5, [r0, r4]
10000816:	1906      	adds	r6, r0, r4
10000818:	464c      	mov	r4, r9
1000081a:	0039      	movs	r1, r7
1000081c:	4014      	ands	r4, r2
1000081e:	40a1      	lsls	r1, r4
10000820:	000c      	movs	r4, r1
10000822:	4229      	tst	r1, r5
10000824:	d011      	beq.n	1000084a <hw_claim_unused_from_range+0x72>
10000826:	3201      	adds	r2, #1
10000828:	4293      	cmp	r3, r2
1000082a:	d2f2      	bcs.n	10000812 <hw_claim_unused_from_range+0x3a>
1000082c:	2001      	movs	r0, #1
1000082e:	4240      	negs	r0, r0
10000830:	f3bf 8f5f 	dmb	sy
10000834:	2200      	movs	r2, #0
10000836:	4b0e      	ldr	r3, [pc, #56]	; (10000870 <hw_claim_unused_from_range+0x98>)
10000838:	601a      	str	r2, [r3, #0]
1000083a:	f38c 8810 	msr	PRIMASK, ip
1000083e:	2800      	cmp	r0, #0
10000840:	db0f      	blt.n	10000862 <hw_claim_unused_from_range+0x8a>
10000842:	bcc0      	pop	{r6, r7}
10000844:	46b9      	mov	r9, r7
10000846:	46b0      	mov	r8, r6
10000848:	bdf8      	pop	{r3, r4, r5, r6, r7, pc}
1000084a:	432c      	orrs	r4, r5
1000084c:	0010      	movs	r0, r2
1000084e:	7034      	strb	r4, [r6, #0]
10000850:	e7ee      	b.n	10000830 <hw_claim_unused_from_range+0x58>
10000852:	f3bf 8f5f 	dmb	sy
10000856:	2300      	movs	r3, #0
10000858:	602b      	str	r3, [r5, #0]
1000085a:	f38c 8810 	msr	PRIMASK, ip
1000085e:	2001      	movs	r0, #1
10000860:	4240      	negs	r0, r0
10000862:	4643      	mov	r3, r8
10000864:	2b00      	cmp	r3, #0
10000866:	d0ec      	beq.n	10000842 <hw_claim_unused_from_range+0x6a>
10000868:	9808      	ldr	r0, [sp, #32]
1000086a:	f001 fa23 	bl	10001cb4 <panic>
1000086e:	46c0      	nop			; (mov r8, r8)
10000870:	d000012c 	.word	0xd000012c

10000874 <spin_locks_reset>:
10000874:	2100      	movs	r1, #0
10000876:	4b04      	ldr	r3, [pc, #16]	; (10000888 <spin_locks_reset+0x14>)
10000878:	4a04      	ldr	r2, [pc, #16]	; (1000088c <spin_locks_reset+0x18>)
1000087a:	f3bf 8f5f 	dmb	sy
1000087e:	c302      	stmia	r3!, {r1}
10000880:	4293      	cmp	r3, r2
10000882:	d1fa      	bne.n	1000087a <spin_locks_reset+0x6>
10000884:	4770      	bx	lr
10000886:	46c0      	nop			; (mov r8, r8)
10000888:	d0000100 	.word	0xd0000100
1000088c:	d0000180 	.word	0xd0000180

10000890 <next_striped_spin_lock_num>:
10000890:	4a04      	ldr	r2, [pc, #16]	; (100008a4 <next_striped_spin_lock_num+0x14>)
10000892:	7810      	ldrb	r0, [r2, #0]
10000894:	1c43      	adds	r3, r0, #1
10000896:	b2db      	uxtb	r3, r3
10000898:	2b17      	cmp	r3, #23
1000089a:	d900      	bls.n	1000089e <next_striped_spin_lock_num+0xe>
1000089c:	2310      	movs	r3, #16
1000089e:	7013      	strb	r3, [r2, #0]
100008a0:	4770      	bx	lr
100008a2:	46c0      	nop			; (mov r8, r8)
100008a4:	20000330 	.word	0x20000330

100008a8 <irq_set_enabled>:
100008a8:	2301      	movs	r3, #1
100008aa:	4083      	lsls	r3, r0
100008ac:	2900      	cmp	r1, #0
100008ae:	d004      	beq.n	100008ba <irq_set_enabled+0x12>
100008b0:	4a03      	ldr	r2, [pc, #12]	; (100008c0 <irq_set_enabled+0x18>)
100008b2:	6013      	str	r3, [r2, #0]
100008b4:	4a03      	ldr	r2, [pc, #12]	; (100008c4 <irq_set_enabled+0x1c>)
100008b6:	6013      	str	r3, [r2, #0]
100008b8:	4770      	bx	lr
100008ba:	4a03      	ldr	r2, [pc, #12]	; (100008c8 <irq_set_enabled+0x20>)
100008bc:	6013      	str	r3, [r2, #0]
100008be:	e7fb      	b.n	100008b8 <irq_set_enabled+0x10>
100008c0:	e000e280 	.word	0xe000e280
100008c4:	e000e100 	.word	0xe000e100
100008c8:	e000e180 	.word	0xe000e180

100008cc <irq_get_vtable_handler>:
100008cc:	4b02      	ldr	r3, [pc, #8]	; (100008d8 <irq_get_vtable_handler+0xc>)
100008ce:	3010      	adds	r0, #16
100008d0:	689b      	ldr	r3, [r3, #8]
100008d2:	0080      	lsls	r0, r0, #2
100008d4:	58c0      	ldr	r0, [r0, r3]
100008d6:	4770      	bx	lr
100008d8:	e000ed00 	.word	0xe000ed00

100008dc <irq_set_exclusive_handler>:
100008dc:	b570      	push	{r4, r5, r6, lr}
100008de:	000d      	movs	r5, r1
100008e0:	f3ef 8610 	mrs	r6, PRIMASK
100008e4:	b672      	cpsid	i
100008e6:	4a0f      	ldr	r2, [pc, #60]	; (10000924 <irq_set_exclusive_handler+0x48>)
100008e8:	6813      	ldr	r3, [r2, #0]
100008ea:	2b00      	cmp	r3, #0
100008ec:	d0fc      	beq.n	100008e8 <irq_set_exclusive_handler+0xc>
100008ee:	f3bf 8f5f 	dmb	sy
100008f2:	4b0d      	ldr	r3, [pc, #52]	; (10000928 <irq_set_exclusive_handler+0x4c>)
100008f4:	3010      	adds	r0, #16
100008f6:	689b      	ldr	r3, [r3, #8]
100008f8:	0084      	lsls	r4, r0, #2
100008fa:	591b      	ldr	r3, [r3, r4]
100008fc:	4a0b      	ldr	r2, [pc, #44]	; (1000092c <irq_set_exclusive_handler+0x50>)
100008fe:	4293      	cmp	r3, r2
10000900:	d003      	beq.n	1000090a <irq_set_exclusive_handler+0x2e>
10000902:	429d      	cmp	r5, r3
10000904:	d001      	beq.n	1000090a <irq_set_exclusive_handler+0x2e>
10000906:	f001 f9ed 	bl	10001ce4 <hard_assertion_failure>
1000090a:	4b07      	ldr	r3, [pc, #28]	; (10000928 <irq_set_exclusive_handler+0x4c>)
1000090c:	689b      	ldr	r3, [r3, #8]
1000090e:	511d      	str	r5, [r3, r4]
10000910:	f3bf 8f5f 	dmb	sy
10000914:	f3bf 8f5f 	dmb	sy
10000918:	2200      	movs	r2, #0
1000091a:	4b02      	ldr	r3, [pc, #8]	; (10000924 <irq_set_exclusive_handler+0x48>)
1000091c:	601a      	str	r2, [r3, #0]
1000091e:	f386 8810 	msr	PRIMASK, r6
10000922:	bd70      	pop	{r4, r5, r6, pc}
10000924:	d0000124 	.word	0xd0000124
10000928:	e000ed00 	.word	0xe000ed00
1000092c:	100001cd 	.word	0x100001cd

10000930 <irq_remove_handler>:
10000930:	b5f0      	push	{r4, r5, r6, r7, lr}
10000932:	46de      	mov	lr, fp
10000934:	4657      	mov	r7, sl
10000936:	464e      	mov	r6, r9
10000938:	4645      	mov	r5, r8
1000093a:	b5e0      	push	{r5, r6, r7, lr}
1000093c:	000c      	movs	r4, r1
1000093e:	b083      	sub	sp, #12
10000940:	f3ef 8910 	mrs	r9, PRIMASK
10000944:	b672      	cpsid	i
10000946:	4a58      	ldr	r2, [pc, #352]	; (10000aa8 <irq_remove_handler+0x178>)
10000948:	6813      	ldr	r3, [r2, #0]
1000094a:	2b00      	cmp	r3, #0
1000094c:	d0fc      	beq.n	10000948 <irq_remove_handler+0x18>
1000094e:	f3bf 8f5f 	dmb	sy
10000952:	4b56      	ldr	r3, [pc, #344]	; (10000aac <irq_remove_handler+0x17c>)
10000954:	689a      	ldr	r2, [r3, #8]
10000956:	0003      	movs	r3, r0
10000958:	3310      	adds	r3, #16
1000095a:	009f      	lsls	r7, r3, #2
1000095c:	59d5      	ldr	r5, [r2, r7]
1000095e:	4a54      	ldr	r2, [pc, #336]	; (10000ab0 <irq_remove_handler+0x180>)
10000960:	4690      	mov	r8, r2
10000962:	4295      	cmp	r5, r2
10000964:	d032      	beq.n	100009cc <irq_remove_handler+0x9c>
10000966:	42a5      	cmp	r5, r4
10000968:	d043      	beq.n	100009f2 <irq_remove_handler+0xc2>
1000096a:	4e52      	ldr	r6, [pc, #328]	; (10000ab4 <irq_remove_handler+0x184>)
1000096c:	1baa      	subs	r2, r5, r6
1000096e:	2a2f      	cmp	r2, #47	; 0x2f
10000970:	d82c      	bhi.n	100009cc <irq_remove_handler+0x9c>
10000972:	2201      	movs	r2, #1
10000974:	4082      	lsls	r2, r0
10000976:	4692      	mov	sl, r2
10000978:	4651      	mov	r1, sl
1000097a:	4a4f      	ldr	r2, [pc, #316]	; (10000ab8 <irq_remove_handler+0x188>)
1000097c:	6812      	ldr	r2, [r2, #0]
1000097e:	4011      	ands	r1, r2
10000980:	9101      	str	r1, [sp, #4]
10000982:	4651      	mov	r1, sl
10000984:	4a4d      	ldr	r2, [pc, #308]	; (10000abc <irq_remove_handler+0x18c>)
10000986:	6011      	str	r1, [r2, #0]
10000988:	f3bf 8f5f 	dmb	sy
1000098c:	f3ef 8205 	mrs	r2, IPSR
10000990:	4693      	mov	fp, r2
10000992:	2a00      	cmp	r2, #0
10000994:	d133      	bne.n	100009fe <irq_remove_handler+0xce>
10000996:	2301      	movs	r3, #1
10000998:	002a      	movs	r2, r5
1000099a:	439a      	bics	r2, r3
1000099c:	6893      	ldr	r3, [r2, #8]
1000099e:	429c      	cmp	r4, r3
100009a0:	d108      	bne.n	100009b4 <irq_remove_handler+0x84>
100009a2:	e077      	b.n	10000a94 <irq_remove_handler+0x164>
100009a4:	004b      	lsls	r3, r1, #1
100009a6:	185b      	adds	r3, r3, r1
100009a8:	009b      	lsls	r3, r3, #2
100009aa:	18f3      	adds	r3, r6, r3
100009ac:	6899      	ldr	r1, [r3, #8]
100009ae:	42a1      	cmp	r1, r4
100009b0:	d02a      	beq.n	10000a08 <irq_remove_handler+0xd8>
100009b2:	001a      	movs	r2, r3
100009b4:	2106      	movs	r1, #6
100009b6:	5651      	ldrsb	r1, [r2, r1]
100009b8:	2900      	cmp	r1, #0
100009ba:	daf3      	bge.n	100009a4 <irq_remove_handler+0x74>
100009bc:	9b01      	ldr	r3, [sp, #4]
100009be:	2b00      	cmp	r3, #0
100009c0:	d019      	beq.n	100009f6 <irq_remove_handler+0xc6>
100009c2:	4652      	mov	r2, sl
100009c4:	4b3e      	ldr	r3, [pc, #248]	; (10000ac0 <irq_remove_handler+0x190>)
100009c6:	601a      	str	r2, [r3, #0]
100009c8:	4b3b      	ldr	r3, [pc, #236]	; (10000ab8 <irq_remove_handler+0x188>)
100009ca:	601a      	str	r2, [r3, #0]
100009cc:	4b37      	ldr	r3, [pc, #220]	; (10000aac <irq_remove_handler+0x17c>)
100009ce:	689b      	ldr	r3, [r3, #8]
100009d0:	51dd      	str	r5, [r3, r7]
100009d2:	f3bf 8f5f 	dmb	sy
100009d6:	f3bf 8f5f 	dmb	sy
100009da:	2200      	movs	r2, #0
100009dc:	4b32      	ldr	r3, [pc, #200]	; (10000aa8 <irq_remove_handler+0x178>)
100009de:	601a      	str	r2, [r3, #0]
100009e0:	f389 8810 	msr	PRIMASK, r9
100009e4:	b003      	add	sp, #12
100009e6:	bcf0      	pop	{r4, r5, r6, r7}
100009e8:	46bb      	mov	fp, r7
100009ea:	46b2      	mov	sl, r6
100009ec:	46a9      	mov	r9, r5
100009ee:	46a0      	mov	r8, r4
100009f0:	bdf0      	pop	{r4, r5, r6, r7, pc}
100009f2:	0015      	movs	r5, r2
100009f4:	e7ea      	b.n	100009cc <irq_remove_handler+0x9c>
100009f6:	4652      	mov	r2, sl
100009f8:	4b30      	ldr	r3, [pc, #192]	; (10000abc <irq_remove_handler+0x18c>)
100009fa:	601a      	str	r2, [r3, #0]
100009fc:	e7e6      	b.n	100009cc <irq_remove_handler+0x9c>
100009fe:	4293      	cmp	r3, r2
10000a00:	d0c9      	beq.n	10000996 <irq_remove_handler+0x66>
10000a02:	f001 f96f 	bl	10001ce4 <hard_assertion_failure>
10000a06:	e7c6      	b.n	10000996 <irq_remove_handler+0x66>
10000a08:	2106      	movs	r1, #6
10000a0a:	5659      	ldrsb	r1, [r3, r1]
10000a0c:	2900      	cmp	r1, #0
10000a0e:	db21      	blt.n	10000a54 <irq_remove_handler+0x124>
10000a10:	004a      	lsls	r2, r1, #1
10000a12:	1850      	adds	r0, r2, r1
10000a14:	0080      	lsls	r0, r0, #2
10000a16:	1834      	adds	r4, r6, r0
10000a18:	4680      	mov	r8, r0
10000a1a:	68a0      	ldr	r0, [r4, #8]
10000a1c:	6098      	str	r0, [r3, #8]
10000a1e:	79e0      	ldrb	r0, [r4, #7]
10000a20:	71d8      	strb	r0, [r3, #7]
10000a22:	2006      	movs	r0, #6
10000a24:	5620      	ldrsb	r0, [r4, r0]
10000a26:	7198      	strb	r0, [r3, #6]
10000a28:	2800      	cmp	r0, #0
10000a2a:	db24      	blt.n	10000a76 <irq_remove_handler+0x146>
10000a2c:	88a4      	ldrh	r4, [r4, #4]
10000a2e:	1af0      	subs	r0, r6, r3
10000a30:	0564      	lsls	r4, r4, #21
10000a32:	1524      	asrs	r4, r4, #20
10000a34:	4444      	add	r4, r8
10000a36:	1900      	adds	r0, r0, r4
10000a38:	24e0      	movs	r4, #224	; 0xe0
10000a3a:	0500      	lsls	r0, r0, #20
10000a3c:	0d40      	lsrs	r0, r0, #21
10000a3e:	0224      	lsls	r4, r4, #8
10000a40:	4320      	orrs	r0, r4
10000a42:	8098      	strh	r0, [r3, #4]
10000a44:	1852      	adds	r2, r2, r1
10000a46:	4b1f      	ldr	r3, [pc, #124]	; (10000ac4 <irq_remove_handler+0x194>)
10000a48:	0092      	lsls	r2, r2, #2
10000a4a:	18b6      	adds	r6, r6, r2
10000a4c:	781a      	ldrb	r2, [r3, #0]
10000a4e:	7019      	strb	r1, [r3, #0]
10000a50:	71b2      	strb	r2, [r6, #6]
10000a52:	e7b3      	b.n	100009bc <irq_remove_handler+0x8c>
10000a54:	4659      	mov	r1, fp
10000a56:	2900      	cmp	r1, #0
10000a58:	d10f      	bne.n	10000a7a <irq_remove_handler+0x14a>
10000a5a:	31ff      	adds	r1, #255	; 0xff
10000a5c:	7191      	strb	r1, [r2, #6]
10000a5e:	491a      	ldr	r1, [pc, #104]	; (10000ac8 <irq_remove_handler+0x198>)
10000a60:	8091      	strh	r1, [r2, #4]
10000a62:	4918      	ldr	r1, [pc, #96]	; (10000ac4 <irq_remove_handler+0x194>)
10000a64:	780a      	ldrb	r2, [r1, #0]
10000a66:	719a      	strb	r2, [r3, #6]
10000a68:	4a18      	ldr	r2, [pc, #96]	; (10000acc <irq_remove_handler+0x19c>)
10000a6a:	1b9b      	subs	r3, r3, r6
10000a6c:	415b      	adcs	r3, r3
10000a6e:	435a      	muls	r2, r3
10000a70:	0d12      	lsrs	r2, r2, #20
10000a72:	700a      	strb	r2, [r1, #0]
10000a74:	e7a2      	b.n	100009bc <irq_remove_handler+0x8c>
10000a76:	4816      	ldr	r0, [pc, #88]	; (10000ad0 <irq_remove_handler+0x1a0>)
10000a78:	e7e3      	b.n	10000a42 <irq_remove_handler+0x112>
10000a7a:	4a16      	ldr	r2, [pc, #88]	; (10000ad4 <irq_remove_handler+0x1a4>)
10000a7c:	4916      	ldr	r1, [pc, #88]	; (10000ad8 <irq_remove_handler+0x1a8>)
10000a7e:	1ad2      	subs	r2, r2, r3
10000a80:	3a08      	subs	r2, #8
10000a82:	0250      	lsls	r0, r2, #9
10000a84:	0d40      	lsrs	r0, r0, #21
10000a86:	4301      	orrs	r1, r0
10000a88:	8099      	strh	r1, [r3, #4]
10000a8a:	4914      	ldr	r1, [pc, #80]	; (10000adc <irq_remove_handler+0x1ac>)
10000a8c:	0852      	lsrs	r2, r2, #1
10000a8e:	430a      	orrs	r2, r1
10000a90:	80da      	strh	r2, [r3, #6]
10000a92:	e793      	b.n	100009bc <irq_remove_handler+0x8c>
10000a94:	2106      	movs	r1, #6
10000a96:	5651      	ldrsb	r1, [r2, r1]
10000a98:	0013      	movs	r3, r2
10000a9a:	2900      	cmp	r1, #0
10000a9c:	dab8      	bge.n	10000a10 <irq_remove_handler+0xe0>
10000a9e:	465a      	mov	r2, fp
10000aa0:	2a00      	cmp	r2, #0
10000aa2:	d1ea      	bne.n	10000a7a <irq_remove_handler+0x14a>
10000aa4:	4645      	mov	r5, r8
10000aa6:	e7dc      	b.n	10000a62 <irq_remove_handler+0x132>
10000aa8:	d0000124 	.word	0xd0000124
10000aac:	e000ed00 	.word	0xe000ed00
10000ab0:	100001cd 	.word	0x100001cd
10000ab4:	20000334 	.word	0x20000334
10000ab8:	e000e100 	.word	0xe000e100
10000abc:	e000e180 	.word	0xe000e180
10000ac0:	e000e280 	.word	0xe000e280
10000ac4:	200008d0 	.word	0x200008d0
10000ac8:	ffffbd01 	.word	0xffffbd01
10000acc:	0000aaaa 	.word	0x0000aaaa
10000ad0:	0000bd01 	.word	0x0000bd01
10000ad4:	2000036e 	.word	0x2000036e
10000ad8:	fffff000 	.word	0xfffff000
10000adc:	fffff800 	.word	0xfffff800

10000ae0 <irq_add_tail_to_free_list>:
10000ae0:	b570      	push	{r4, r5, r6, lr}
10000ae2:	f3ef 8105 	mrs	r1, IPSR
10000ae6:	2401      	movs	r4, #1
10000ae8:	4304      	orrs	r4, r0
10000aea:	f3ef 8c10 	mrs	ip, PRIMASK
10000aee:	b672      	cpsid	i
10000af0:	4a21      	ldr	r2, [pc, #132]	; (10000b78 <irq_add_tail_to_free_list+0x98>)
10000af2:	6813      	ldr	r3, [r2, #0]
10000af4:	2b00      	cmp	r3, #0
10000af6:	d0fc      	beq.n	10000af2 <irq_add_tail_to_free_list+0x12>
10000af8:	f3bf 8f5f 	dmb	sy
10000afc:	4b1f      	ldr	r3, [pc, #124]	; (10000b7c <irq_add_tail_to_free_list+0x9c>)
10000afe:	0005      	movs	r5, r0
10000b00:	4a1f      	ldr	r2, [pc, #124]	; (10000b80 <irq_add_tail_to_free_list+0xa0>)
10000b02:	1aed      	subs	r5, r5, r3
10000b04:	416d      	adcs	r5, r5
10000b06:	436a      	muls	r2, r5
10000b08:	0d12      	lsrs	r2, r2, #20
10000b0a:	4d1e      	ldr	r5, [pc, #120]	; (10000b84 <irq_add_tail_to_free_list+0xa4>)
10000b0c:	0089      	lsls	r1, r1, #2
10000b0e:	68ae      	ldr	r6, [r5, #8]
10000b10:	b252      	sxtb	r2, r2
10000b12:	5876      	ldr	r6, [r6, r1]
10000b14:	42a6      	cmp	r6, r4
10000b16:	d01c      	beq.n	10000b52 <irq_add_tail_to_free_list+0x72>
10000b18:	2106      	movs	r1, #6
10000b1a:	5659      	ldrsb	r1, [r3, r1]
10000b1c:	4291      	cmp	r1, r2
10000b1e:	d01c      	beq.n	10000b5a <irq_add_tail_to_free_list+0x7a>
10000b20:	2112      	movs	r1, #18
10000b22:	5659      	ldrsb	r1, [r3, r1]
10000b24:	4291      	cmp	r1, r2
10000b26:	d022      	beq.n	10000b6e <irq_add_tail_to_free_list+0x8e>
10000b28:	211e      	movs	r1, #30
10000b2a:	5659      	ldrsb	r1, [r3, r1]
10000b2c:	4291      	cmp	r1, r2
10000b2e:	d020      	beq.n	10000b72 <irq_add_tail_to_free_list+0x92>
10000b30:	212a      	movs	r1, #42	; 0x2a
10000b32:	5659      	ldrsb	r1, [r3, r1]
10000b34:	2403      	movs	r4, #3
10000b36:	4291      	cmp	r1, r2
10000b38:	d010      	beq.n	10000b5c <irq_add_tail_to_free_list+0x7c>
10000b3a:	4b13      	ldr	r3, [pc, #76]	; (10000b88 <irq_add_tail_to_free_list+0xa8>)
10000b3c:	7819      	ldrb	r1, [r3, #0]
10000b3e:	701a      	strb	r2, [r3, #0]
10000b40:	7181      	strb	r1, [r0, #6]
10000b42:	f3bf 8f5f 	dmb	sy
10000b46:	2200      	movs	r2, #0
10000b48:	4b0b      	ldr	r3, [pc, #44]	; (10000b78 <irq_add_tail_to_free_list+0x98>)
10000b4a:	601a      	str	r2, [r3, #0]
10000b4c:	f38c 8810 	msr	PRIMASK, ip
10000b50:	bd70      	pop	{r4, r5, r6, pc}
10000b52:	68ab      	ldr	r3, [r5, #8]
10000b54:	4c0d      	ldr	r4, [pc, #52]	; (10000b8c <irq_add_tail_to_free_list+0xac>)
10000b56:	505c      	str	r4, [r3, r1]
10000b58:	e7ef      	b.n	10000b3a <irq_add_tail_to_free_list+0x5a>
10000b5a:	2400      	movs	r4, #0
10000b5c:	0061      	lsls	r1, r4, #1
10000b5e:	1909      	adds	r1, r1, r4
10000b60:	0089      	lsls	r1, r1, #2
10000b62:	185b      	adds	r3, r3, r1
10000b64:	21ff      	movs	r1, #255	; 0xff
10000b66:	7199      	strb	r1, [r3, #6]
10000b68:	4909      	ldr	r1, [pc, #36]	; (10000b90 <irq_add_tail_to_free_list+0xb0>)
10000b6a:	8099      	strh	r1, [r3, #4]
10000b6c:	e7e5      	b.n	10000b3a <irq_add_tail_to_free_list+0x5a>
10000b6e:	2401      	movs	r4, #1
10000b70:	e7f4      	b.n	10000b5c <irq_add_tail_to_free_list+0x7c>
10000b72:	2402      	movs	r4, #2
10000b74:	e7f2      	b.n	10000b5c <irq_add_tail_to_free_list+0x7c>
10000b76:	46c0      	nop			; (mov r8, r8)
10000b78:	d0000124 	.word	0xd0000124
10000b7c:	20000334 	.word	0x20000334
10000b80:	0000aaaa 	.word	0x0000aaaa
10000b84:	e000ed00 	.word	0xe000ed00
10000b88:	200008d0 	.word	0x200008d0
10000b8c:	100001cd 	.word	0x100001cd
10000b90:	ffffbd01 	.word	0xffffbd01

10000b94 <irq_init_priorities>:
10000b94:	4b05      	ldr	r3, [pc, #20]	; (10000bac <irq_init_priorities+0x18>)
10000b96:	4a06      	ldr	r2, [pc, #24]	; (10000bb0 <irq_init_priorities+0x1c>)
10000b98:	6013      	str	r3, [r2, #0]
10000b9a:	4a06      	ldr	r2, [pc, #24]	; (10000bb4 <irq_init_priorities+0x20>)
10000b9c:	6013      	str	r3, [r2, #0]
10000b9e:	6053      	str	r3, [r2, #4]
10000ba0:	6093      	str	r3, [r2, #8]
10000ba2:	60d3      	str	r3, [r2, #12]
10000ba4:	6113      	str	r3, [r2, #16]
10000ba6:	6153      	str	r3, [r2, #20]
10000ba8:	6193      	str	r3, [r2, #24]
10000baa:	4770      	bx	lr
10000bac:	80808080 	.word	0x80808080
10000bb0:	e000e400 	.word	0xe000e400
10000bb4:	e000e404 	.word	0xe000e404

10000bb8 <lock_init>:
10000bb8:	4b02      	ldr	r3, [pc, #8]	; (10000bc4 <lock_init+0xc>)
10000bba:	469c      	mov	ip, r3
10000bbc:	4461      	add	r1, ip
10000bbe:	0089      	lsls	r1, r1, #2
10000bc0:	6001      	str	r1, [r0, #0]
10000bc2:	4770      	bx	lr
10000bc4:	34000040 	.word	0x34000040

10000bc8 <mutex_init>:
10000bc8:	b510      	push	{r4, lr}
10000bca:	0004      	movs	r4, r0
10000bcc:	f7ff fe60 	bl	10000890 <next_striped_spin_lock_num>
10000bd0:	0001      	movs	r1, r0
10000bd2:	0020      	movs	r0, r4
10000bd4:	f7ff fff0 	bl	10000bb8 <lock_init>
10000bd8:	23ff      	movs	r3, #255	; 0xff
10000bda:	7123      	strb	r3, [r4, #4]
10000bdc:	f3bf 8f5f 	dmb	sy
10000be0:	bd10      	pop	{r4, pc}
10000be2:	46c0      	nop			; (mov r8, r8)

10000be4 <recursive_mutex_init>:
10000be4:	b510      	push	{r4, lr}
10000be6:	0004      	movs	r4, r0
10000be8:	f7ff fe52 	bl	10000890 <next_striped_spin_lock_num>
10000bec:	0001      	movs	r1, r0
10000bee:	0020      	movs	r0, r4
10000bf0:	f7ff ffe2 	bl	10000bb8 <lock_init>
10000bf4:	23ff      	movs	r3, #255	; 0xff
10000bf6:	80a3      	strh	r3, [r4, #4]
10000bf8:	f3bf 8f5f 	dmb	sy
10000bfc:	bd10      	pop	{r4, pc}
10000bfe:	46c0      	nop			; (mov r8, r8)

10000c00 <timer_pool_entry_comparator>:
10000c00:	6883      	ldr	r3, [r0, #8]
10000c02:	480b      	ldr	r0, [pc, #44]	; (10000c30 <timer_pool_entry_comparator+0x30>)
10000c04:	b510      	push	{r4, lr}
10000c06:	4684      	mov	ip, r0
10000c08:	4461      	add	r1, ip
10000c0a:	4462      	add	r2, ip
10000c0c:	0109      	lsls	r1, r1, #4
10000c0e:	0112      	lsls	r2, r2, #4
10000c10:	189a      	adds	r2, r3, r2
10000c12:	1859      	adds	r1, r3, r1
10000c14:	6854      	ldr	r4, [r2, #4]
10000c16:	684b      	ldr	r3, [r1, #4]
10000c18:	2001      	movs	r0, #1
10000c1a:	429c      	cmp	r4, r3
10000c1c:	d801      	bhi.n	10000c22 <timer_pool_entry_comparator+0x22>
10000c1e:	d002      	beq.n	10000c26 <timer_pool_entry_comparator+0x26>
10000c20:	2000      	movs	r0, #0
10000c22:	b2c0      	uxtb	r0, r0
10000c24:	bd10      	pop	{r4, pc}
10000c26:	6812      	ldr	r2, [r2, #0]
10000c28:	680b      	ldr	r3, [r1, #0]
10000c2a:	429a      	cmp	r2, r3
10000c2c:	d8f9      	bhi.n	10000c22 <timer_pool_entry_comparator+0x22>
10000c2e:	e7f7      	b.n	10000c20 <timer_pool_entry_comparator+0x20>
10000c30:	0fffffff 	.word	0x0fffffff

10000c34 <sleep_until_callback>:
10000c34:	4b0a      	ldr	r3, [pc, #40]	; (10000c60 <sleep_until_callback+0x2c>)
10000c36:	6819      	ldr	r1, [r3, #0]
10000c38:	f3ef 8010 	mrs	r0, PRIMASK
10000c3c:	b672      	cpsid	i
10000c3e:	680a      	ldr	r2, [r1, #0]
10000c40:	2a00      	cmp	r2, #0
10000c42:	d0fc      	beq.n	10000c3e <sleep_until_callback+0xa>
10000c44:	f3bf 8f5f 	dmb	sy
10000c48:	681b      	ldr	r3, [r3, #0]
10000c4a:	f3bf 8f5f 	dmb	sy
10000c4e:	2200      	movs	r2, #0
10000c50:	601a      	str	r2, [r3, #0]
10000c52:	f380 8810 	msr	PRIMASK, r0
10000c56:	bf40      	sev
10000c58:	2000      	movs	r0, #0
10000c5a:	2100      	movs	r1, #0
10000c5c:	4770      	bx	lr
10000c5e:	46c0      	nop			; (mov r8, r8)
10000c60:	200008b8 	.word	0x200008b8

10000c64 <add_alarm_under_lock.isra.0>:
10000c64:	b5f8      	push	{r3, r4, r5, r6, r7, lr}
10000c66:	4657      	mov	r7, sl
10000c68:	464e      	mov	r6, r9
10000c6a:	4645      	mov	r5, r8
10000c6c:	46de      	mov	lr, fp
10000c6e:	b5e0      	push	{r5, r6, r7, lr}
10000c70:	4699      	mov	r9, r3
10000c72:	ab0c      	add	r3, sp, #48	; 0x30
10000c74:	781c      	ldrb	r4, [r3, #0]
10000c76:	ab0d      	add	r3, sp, #52	; 0x34
10000c78:	781b      	ldrb	r3, [r3, #0]
10000c7a:	0006      	movs	r6, r0
10000c7c:	4690      	mov	r8, r2
10000c7e:	469a      	mov	sl, r3
10000c80:	6807      	ldr	r7, [r0, #0]
10000c82:	2c00      	cmp	r4, #0
10000c84:	d111      	bne.n	10000caa <add_alarm_under_lock.isra.0+0x46>
10000c86:	7bbc      	ldrb	r4, [r7, #14]
10000c88:	2c00      	cmp	r4, #0
10000c8a:	d042      	beq.n	10000d12 <add_alarm_under_lock.isra.0+0xae>
10000c8c:	0065      	lsls	r5, r4, #1
10000c8e:	683b      	ldr	r3, [r7, #0]
10000c90:	192d      	adds	r5, r5, r4
10000c92:	3d03      	subs	r5, #3
10000c94:	1959      	adds	r1, r3, r5
10000c96:	784b      	ldrb	r3, [r1, #1]
10000c98:	73bb      	strb	r3, [r7, #14]
10000c9a:	2b00      	cmp	r3, #0
10000c9c:	d100      	bne.n	10000ca0 <add_alarm_under_lock.isra.0+0x3c>
10000c9e:	73fb      	strb	r3, [r7, #15]
10000ca0:	2300      	movs	r3, #0
10000ca2:	708b      	strb	r3, [r1, #2]
10000ca4:	704b      	strb	r3, [r1, #1]
10000ca6:	700b      	strb	r3, [r1, #0]
10000ca8:	e004      	b.n	10000cb4 <add_alarm_under_lock.isra.0+0x50>
10000caa:	0065      	lsls	r5, r4, #1
10000cac:	683b      	ldr	r3, [r7, #0]
10000cae:	192d      	adds	r5, r5, r4
10000cb0:	3d03      	subs	r5, #3
10000cb2:	1959      	adds	r1, r3, r5
10000cb4:	68b2      	ldr	r2, [r6, #8]
10000cb6:	4b2a      	ldr	r3, [pc, #168]	; (10000d60 <add_alarm_under_lock.isra.0+0xfc>)
10000cb8:	4694      	mov	ip, r2
10000cba:	4642      	mov	r2, r8
10000cbc:	18e3      	adds	r3, r4, r3
10000cbe:	011b      	lsls	r3, r3, #4
10000cc0:	4463      	add	r3, ip
10000cc2:	601a      	str	r2, [r3, #0]
10000cc4:	464a      	mov	r2, r9
10000cc6:	605a      	str	r2, [r3, #4]
10000cc8:	9a0a      	ldr	r2, [sp, #40]	; 0x28
10000cca:	609a      	str	r2, [r3, #8]
10000ccc:	9a0b      	ldr	r2, [sp, #44]	; 0x2c
10000cce:	60da      	str	r2, [r3, #12]
10000cd0:	2300      	movs	r3, #0
10000cd2:	708b      	strb	r3, [r1, #2]
10000cd4:	704b      	strb	r3, [r1, #1]
10000cd6:	700b      	strb	r3, [r1, #0]
10000cd8:	7b7b      	ldrb	r3, [r7, #13]
10000cda:	469b      	mov	fp, r3
10000cdc:	2b00      	cmp	r3, #0
10000cde:	d02b      	beq.n	10000d38 <add_alarm_under_lock.isra.0+0xd4>
10000ce0:	0022      	movs	r2, r4
10000ce2:	4659      	mov	r1, fp
10000ce4:	68b8      	ldr	r0, [r7, #8]
10000ce6:	687b      	ldr	r3, [r7, #4]
10000ce8:	4798      	blx	r3
10000cea:	683a      	ldr	r2, [r7, #0]
10000cec:	2800      	cmp	r0, #0
10000cee:	d016      	beq.n	10000d1e <add_alarm_under_lock.isra.0+0xba>
10000cf0:	465b      	mov	r3, fp
10000cf2:	4658      	mov	r0, fp
10000cf4:	005b      	lsls	r3, r3, #1
10000cf6:	445b      	add	r3, fp
10000cf8:	1955      	adds	r5, r2, r5
10000cfa:	3b03      	subs	r3, #3
10000cfc:	70a8      	strb	r0, [r5, #2]
10000cfe:	18d1      	adds	r1, r2, r3
10000d00:	5cd3      	ldrb	r3, [r2, r3]
10000d02:	2b00      	cmp	r3, #0
10000d04:	d000      	beq.n	10000d08 <add_alarm_under_lock.isra.0+0xa4>
10000d06:	706b      	strb	r3, [r5, #1]
10000d08:	465b      	mov	r3, fp
10000d0a:	700c      	strb	r4, [r1, #0]
10000d0c:	737b      	strb	r3, [r7, #13]
10000d0e:	45a3      	cmp	fp, r4
10000d10:	d013      	beq.n	10000d3a <add_alarm_under_lock.isra.0+0xd6>
10000d12:	bcf0      	pop	{r4, r5, r6, r7}
10000d14:	46bb      	mov	fp, r7
10000d16:	46b2      	mov	sl, r6
10000d18:	46a9      	mov	r9, r5
10000d1a:	46a0      	mov	r8, r4
10000d1c:	bdf8      	pop	{r3, r4, r5, r6, r7, pc}
10000d1e:	465b      	mov	r3, fp
10000d20:	005b      	lsls	r3, r3, #1
10000d22:	445b      	add	r3, fp
10000d24:	3b03      	subs	r3, #3
10000d26:	18d3      	adds	r3, r2, r3
10000d28:	709c      	strb	r4, [r3, #2]
10000d2a:	1951      	adds	r1, r2, r5
10000d2c:	5d52      	ldrb	r2, [r2, r5]
10000d2e:	2a00      	cmp	r2, #0
10000d30:	d000      	beq.n	10000d34 <add_alarm_under_lock.isra.0+0xd0>
10000d32:	705a      	strb	r2, [r3, #1]
10000d34:	465b      	mov	r3, fp
10000d36:	700b      	strb	r3, [r1, #0]
10000d38:	737c      	strb	r4, [r7, #13]
10000d3a:	4642      	mov	r2, r8
10000d3c:	464b      	mov	r3, r9
10000d3e:	7d30      	ldrb	r0, [r6, #20]
10000d40:	f000 fb04 	bl	1000134c <hardware_alarm_set_target>
10000d44:	1e05      	subs	r5, r0, #0
10000d46:	d006      	beq.n	10000d56 <add_alarm_under_lock.isra.0+0xf2>
10000d48:	4653      	mov	r3, sl
10000d4a:	2b00      	cmp	r3, #0
10000d4c:	d103      	bne.n	10000d56 <add_alarm_under_lock.isra.0+0xf2>
10000d4e:	0021      	movs	r1, r4
10000d50:	6830      	ldr	r0, [r6, #0]
10000d52:	f000 fd1f 	bl	10001794 <ph_remove_and_free_node>
10000d56:	9b0e      	ldr	r3, [sp, #56]	; 0x38
10000d58:	2b00      	cmp	r3, #0
10000d5a:	d0da      	beq.n	10000d12 <add_alarm_under_lock.isra.0+0xae>
10000d5c:	701d      	strb	r5, [r3, #0]
10000d5e:	e7d8      	b.n	10000d12 <add_alarm_under_lock.isra.0+0xae>
10000d60:	0fffffff 	.word	0x0fffffff

10000d64 <alarm_pool_alarm_callback>:
10000d64:	b5f0      	push	{r4, r5, r6, r7, lr}
10000d66:	46de      	mov	lr, fp
10000d68:	4657      	mov	r7, sl
10000d6a:	464e      	mov	r6, r9
10000d6c:	4645      	mov	r5, r8
10000d6e:	2300      	movs	r3, #0
10000d70:	b5e0      	push	{r5, r6, r7, lr}
10000d72:	b08b      	sub	sp, #44	; 0x2c
10000d74:	9308      	str	r3, [sp, #32]
10000d76:	4b67      	ldr	r3, [pc, #412]	; (10000f14 <alarm_pool_alarm_callback+0x1b0>)
10000d78:	0082      	lsls	r2, r0, #2
10000d7a:	58d4      	ldr	r4, [r2, r3]
10000d7c:	2300      	movs	r3, #0
10000d7e:	469b      	mov	fp, r3
10000d80:	9009      	str	r0, [sp, #36]	; 0x24
10000d82:	f000 fa93 	bl	100012ac <time_us_64>
10000d86:	6862      	ldr	r2, [r4, #4]
10000d88:	0006      	movs	r6, r0
10000d8a:	000f      	movs	r7, r1
10000d8c:	f3ef 8510 	mrs	r5, PRIMASK
10000d90:	b672      	cpsid	i
10000d92:	6813      	ldr	r3, [r2, #0]
10000d94:	2b00      	cmp	r3, #0
10000d96:	d0fc      	beq.n	10000d92 <alarm_pool_alarm_callback+0x2e>
10000d98:	f3bf 8f5f 	dmb	sy
10000d9c:	6823      	ldr	r3, [r4, #0]
10000d9e:	469c      	mov	ip, r3
10000da0:	7b5b      	ldrb	r3, [r3, #13]
10000da2:	4699      	mov	r9, r3
10000da4:	2b00      	cmp	r3, #0
10000da6:	d100      	bne.n	10000daa <alarm_pool_alarm_callback+0x46>
10000da8:	e069      	b.n	10000e7e <alarm_pool_alarm_callback+0x11a>
10000daa:	68a2      	ldr	r2, [r4, #8]
10000dac:	4b5a      	ldr	r3, [pc, #360]	; (10000f18 <alarm_pool_alarm_callback+0x1b4>)
10000dae:	4690      	mov	r8, r2
10000db0:	444b      	add	r3, r9
10000db2:	011b      	lsls	r3, r3, #4
10000db4:	4498      	add	r8, r3
10000db6:	4643      	mov	r3, r8
10000db8:	681a      	ldr	r2, [r3, #0]
10000dba:	685b      	ldr	r3, [r3, #4]
10000dbc:	0010      	movs	r0, r2
10000dbe:	0019      	movs	r1, r3
10000dc0:	1b80      	subs	r0, r0, r6
10000dc2:	41b9      	sbcs	r1, r7
10000dc4:	2900      	cmp	r1, #0
10000dc6:	dc00      	bgt.n	10000dca <alarm_pool_alarm_callback+0x66>
10000dc8:	e063      	b.n	10000e92 <alarm_pool_alarm_callback+0x12e>
10000dca:	9809      	ldr	r0, [sp, #36]	; 0x24
10000dcc:	f000 fabe 	bl	1000134c <hardware_alarm_set_target>
10000dd0:	2300      	movs	r3, #0
10000dd2:	2200      	movs	r2, #0
10000dd4:	4698      	mov	r8, r3
10000dd6:	2300      	movs	r3, #0
10000dd8:	9206      	str	r2, [sp, #24]
10000dda:	9307      	str	r3, [sp, #28]
10000ddc:	2300      	movs	r3, #0
10000dde:	469a      	mov	sl, r3
10000de0:	6863      	ldr	r3, [r4, #4]
10000de2:	f3bf 8f5f 	dmb	sy
10000de6:	465a      	mov	r2, fp
10000de8:	601a      	str	r2, [r3, #0]
10000dea:	f385 8810 	msr	PRIMASK, r5
10000dee:	4653      	mov	r3, sl
10000df0:	2b00      	cmp	r3, #0
10000df2:	d108      	bne.n	10000e06 <alarm_pool_alarm_callback+0xa2>
10000df4:	2800      	cmp	r0, #0
10000df6:	d1c4      	bne.n	10000d82 <alarm_pool_alarm_callback+0x1e>
10000df8:	b00b      	add	sp, #44	; 0x2c
10000dfa:	bcf0      	pop	{r4, r5, r6, r7}
10000dfc:	46bb      	mov	fp, r7
10000dfe:	46b2      	mov	sl, r6
10000e00:	46a9      	mov	r9, r5
10000e02:	46a0      	mov	r8, r4
10000e04:	bdf0      	pop	{r4, r5, r6, r7, pc}
10000e06:	9b08      	ldr	r3, [sp, #32]
10000e08:	4641      	mov	r1, r8
10000e0a:	0218      	lsls	r0, r3, #8
10000e0c:	464b      	mov	r3, r9
10000e0e:	4318      	orrs	r0, r3
10000e10:	47d0      	blx	sl
10000e12:	6862      	ldr	r2, [r4, #4]
10000e14:	0006      	movs	r6, r0
10000e16:	000f      	movs	r7, r1
10000e18:	f3ef 8510 	mrs	r5, PRIMASK
10000e1c:	b672      	cpsid	i
10000e1e:	6813      	ldr	r3, [r2, #0]
10000e20:	2b00      	cmp	r3, #0
10000e22:	d0fc      	beq.n	10000e1e <alarm_pool_alarm_callback+0xba>
10000e24:	f3bf 8f5f 	dmb	sy
10000e28:	2f00      	cmp	r7, #0
10000e2a:	db50      	blt.n	10000ece <alarm_pool_alarm_callback+0x16a>
10000e2c:	0033      	movs	r3, r6
10000e2e:	433b      	orrs	r3, r7
10000e30:	d002      	beq.n	10000e38 <alarm_pool_alarm_callback+0xd4>
10000e32:	6923      	ldr	r3, [r4, #16]
10000e34:	2b00      	cmp	r3, #0
10000e36:	d161      	bne.n	10000efc <alarm_pool_alarm_callback+0x198>
10000e38:	6823      	ldr	r3, [r4, #0]
10000e3a:	7bd9      	ldrb	r1, [r3, #15]
10000e3c:	2900      	cmp	r1, #0
10000e3e:	d007      	beq.n	10000e50 <alarm_pool_alarm_callback+0xec>
10000e40:	004a      	lsls	r2, r1, #1
10000e42:	1852      	adds	r2, r2, r1
10000e44:	6819      	ldr	r1, [r3, #0]
10000e46:	468c      	mov	ip, r1
10000e48:	4649      	mov	r1, r9
10000e4a:	4462      	add	r2, ip
10000e4c:	3a03      	subs	r2, #3
10000e4e:	7051      	strb	r1, [r2, #1]
10000e50:	7b9a      	ldrb	r2, [r3, #14]
10000e52:	2a00      	cmp	r2, #0
10000e54:	d101      	bne.n	10000e5a <alarm_pool_alarm_callback+0xf6>
10000e56:	464a      	mov	r2, r9
10000e58:	739a      	strb	r2, [r3, #14]
10000e5a:	464a      	mov	r2, r9
10000e5c:	73da      	strb	r2, [r3, #15]
10000e5e:	464b      	mov	r3, r9
10000e60:	68e1      	ldr	r1, [r4, #12]
10000e62:	3b01      	subs	r3, #1
10000e64:	5cca      	ldrb	r2, [r1, r3]
10000e66:	3201      	adds	r2, #1
10000e68:	54ca      	strb	r2, [r1, r3]
10000e6a:	465b      	mov	r3, fp
10000e6c:	6123      	str	r3, [r4, #16]
10000e6e:	6863      	ldr	r3, [r4, #4]
10000e70:	f3bf 8f5f 	dmb	sy
10000e74:	465a      	mov	r2, fp
10000e76:	601a      	str	r2, [r3, #0]
10000e78:	f385 8810 	msr	PRIMASK, r5
10000e7c:	e781      	b.n	10000d82 <alarm_pool_alarm_callback+0x1e>
10000e7e:	2300      	movs	r3, #0
10000e80:	2200      	movs	r2, #0
10000e82:	4698      	mov	r8, r3
10000e84:	2300      	movs	r3, #0
10000e86:	9206      	str	r2, [sp, #24]
10000e88:	9307      	str	r3, [sp, #28]
10000e8a:	2300      	movs	r3, #0
10000e8c:	2000      	movs	r0, #0
10000e8e:	469a      	mov	sl, r3
10000e90:	e7a6      	b.n	10000de0 <alarm_pool_alarm_callback+0x7c>
10000e92:	2900      	cmp	r1, #0
10000e94:	d102      	bne.n	10000e9c <alarm_pool_alarm_callback+0x138>
10000e96:	2800      	cmp	r0, #0
10000e98:	d000      	beq.n	10000e9c <alarm_pool_alarm_callback+0x138>
10000e9a:	e796      	b.n	10000dca <alarm_pool_alarm_callback+0x66>
10000e9c:	2100      	movs	r1, #0
10000e9e:	4660      	mov	r0, ip
10000ea0:	f000 fbf6 	bl	10001690 <ph_remove_head>
10000ea4:	4643      	mov	r3, r8
10000ea6:	681a      	ldr	r2, [r3, #0]
10000ea8:	685b      	ldr	r3, [r3, #4]
10000eaa:	9206      	str	r2, [sp, #24]
10000eac:	9307      	str	r3, [sp, #28]
10000eae:	4643      	mov	r3, r8
10000eb0:	689b      	ldr	r3, [r3, #8]
10000eb2:	469a      	mov	sl, r3
10000eb4:	4643      	mov	r3, r8
10000eb6:	68db      	ldr	r3, [r3, #12]
10000eb8:	4698      	mov	r8, r3
10000eba:	68e3      	ldr	r3, [r4, #12]
10000ebc:	444b      	add	r3, r9
10000ebe:	3b01      	subs	r3, #1
10000ec0:	781b      	ldrb	r3, [r3, #0]
10000ec2:	9308      	str	r3, [sp, #32]
10000ec4:	021b      	lsls	r3, r3, #8
10000ec6:	4303      	orrs	r3, r0
10000ec8:	6123      	str	r3, [r4, #16]
10000eca:	2000      	movs	r0, #0
10000ecc:	e788      	b.n	10000de0 <alarm_pool_alarm_callback+0x7c>
10000ece:	6923      	ldr	r3, [r4, #16]
10000ed0:	2b00      	cmp	r3, #0
10000ed2:	d0b1      	beq.n	10000e38 <alarm_pool_alarm_callback+0xd4>
10000ed4:	9a06      	ldr	r2, [sp, #24]
10000ed6:	9b07      	ldr	r3, [sp, #28]
10000ed8:	1b92      	subs	r2, r2, r6
10000eda:	41bb      	sbcs	r3, r7
10000edc:	2b00      	cmp	r3, #0
10000ede:	db15      	blt.n	10000f0c <alarm_pool_alarm_callback+0x1a8>
10000ee0:	4659      	mov	r1, fp
10000ee2:	9104      	str	r1, [sp, #16]
10000ee4:	2101      	movs	r1, #1
10000ee6:	9103      	str	r1, [sp, #12]
10000ee8:	4649      	mov	r1, r9
10000eea:	9102      	str	r1, [sp, #8]
10000eec:	4641      	mov	r1, r8
10000eee:	9101      	str	r1, [sp, #4]
10000ef0:	4651      	mov	r1, sl
10000ef2:	0020      	movs	r0, r4
10000ef4:	9100      	str	r1, [sp, #0]
10000ef6:	f7ff feb5 	bl	10000c64 <add_alarm_under_lock.isra.0>
10000efa:	e7b6      	b.n	10000e6a <alarm_pool_alarm_callback+0x106>
10000efc:	f000 f9d6 	bl	100012ac <time_us_64>
10000f00:	0032      	movs	r2, r6
10000f02:	003b      	movs	r3, r7
10000f04:	1812      	adds	r2, r2, r0
10000f06:	414b      	adcs	r3, r1
10000f08:	2b00      	cmp	r3, #0
10000f0a:	dae9      	bge.n	10000ee0 <alarm_pool_alarm_callback+0x17c>
10000f0c:	2201      	movs	r2, #1
10000f0e:	4b03      	ldr	r3, [pc, #12]	; (10000f1c <alarm_pool_alarm_callback+0x1b8>)
10000f10:	4252      	negs	r2, r2
10000f12:	e7e5      	b.n	10000ee0 <alarm_pool_alarm_callback+0x17c>
10000f14:	200008a4 	.word	0x200008a4
10000f18:	0fffffff 	.word	0x0fffffff
10000f1c:	7fffffff 	.word	0x7fffffff

10000f20 <alarm_pool_init_default>:
10000f20:	b510      	push	{r4, lr}
10000f22:	4c14      	ldr	r4, [pc, #80]	; (10000f74 <alarm_pool_init_default+0x54>)
10000f24:	6863      	ldr	r3, [r4, #4]
10000f26:	2b00      	cmp	r3, #0
10000f28:	d004      	beq.n	10000f34 <alarm_pool_init_default+0x14>
10000f2a:	210a      	movs	r1, #10
10000f2c:	4812      	ldr	r0, [pc, #72]	; (10000f78 <alarm_pool_init_default+0x58>)
10000f2e:	f7ff fe43 	bl	10000bb8 <lock_init>
10000f32:	bd10      	pop	{r4, pc}
10000f34:	0023      	movs	r3, r4
10000f36:	4a11      	ldr	r2, [pc, #68]	; (10000f7c <alarm_pool_init_default+0x5c>)
10000f38:	2110      	movs	r1, #16
10000f3a:	6820      	ldr	r0, [r4, #0]
10000f3c:	f000 fac2 	bl	100014c4 <ph_post_alloc_init>
10000f40:	2003      	movs	r0, #3
10000f42:	f000 f9a7 	bl	10001294 <hardware_alarm_claim>
10000f46:	2003      	movs	r0, #3
10000f48:	f000 fa6a 	bl	10001420 <hardware_alarm_cancel>
10000f4c:	2003      	movs	r0, #3
10000f4e:	490c      	ldr	r1, [pc, #48]	; (10000f80 <alarm_pool_init_default+0x60>)
10000f50:	f000 f9b6 	bl	100012c0 <hardware_alarm_set_callback>
10000f54:	f7ff fc9c 	bl	10000890 <next_striped_spin_lock_num>
10000f58:	4b0a      	ldr	r3, [pc, #40]	; (10000f84 <alarm_pool_init_default+0x64>)
10000f5a:	469c      	mov	ip, r3
10000f5c:	2303      	movs	r3, #3
10000f5e:	7523      	strb	r3, [r4, #20]
10000f60:	23d0      	movs	r3, #208	; 0xd0
10000f62:	061b      	lsls	r3, r3, #24
10000f64:	681b      	ldr	r3, [r3, #0]
10000f66:	4460      	add	r0, ip
10000f68:	7563      	strb	r3, [r4, #21]
10000f6a:	4b07      	ldr	r3, [pc, #28]	; (10000f88 <alarm_pool_init_default+0x68>)
10000f6c:	0080      	lsls	r0, r0, #2
10000f6e:	6060      	str	r0, [r4, #4]
10000f70:	60dc      	str	r4, [r3, #12]
10000f72:	e7da      	b.n	10000f2a <alarm_pool_init_default+0xa>
10000f74:	2000037c 	.word	0x2000037c
10000f78:	200008b8 	.word	0x200008b8
10000f7c:	10000c01 	.word	0x10000c01
10000f80:	10000d65 	.word	0x10000d65
10000f84:	34000040 	.word	0x34000040
10000f88:	200008a4 	.word	0x200008a4

10000f8c <alarm_pool_add_alarm_at>:
10000f8c:	b5f0      	push	{r4, r5, r6, r7, lr}
10000f8e:	464e      	mov	r6, r9
10000f90:	4645      	mov	r5, r8
10000f92:	46de      	mov	lr, fp
10000f94:	4657      	mov	r7, sl
10000f96:	b5e0      	push	{r5, r6, r7, lr}
10000f98:	b085      	sub	sp, #20
10000f9a:	9301      	str	r3, [sp, #4]
10000f9c:	ab10      	add	r3, sp, #64	; 0x40
10000f9e:	781b      	ldrb	r3, [r3, #0]
10000fa0:	0006      	movs	r6, r0
10000fa2:	9303      	str	r3, [sp, #12]
10000fa4:	2300      	movs	r3, #0
10000fa6:	4699      	mov	r9, r3
10000fa8:	4698      	mov	r8, r3
10000faa:	9200      	str	r2, [sp, #0]
10000fac:	6872      	ldr	r2, [r6, #4]
10000fae:	f3ef 8b10 	mrs	fp, PRIMASK
10000fb2:	b672      	cpsid	i
10000fb4:	6813      	ldr	r3, [r2, #0]
10000fb6:	2b00      	cmp	r3, #0
10000fb8:	d0fc      	beq.n	10000fb4 <alarm_pool_add_alarm_at+0x28>
10000fba:	f3bf 8f5f 	dmb	sy
10000fbe:	6835      	ldr	r5, [r6, #0]
10000fc0:	7bac      	ldrb	r4, [r5, #14]
10000fc2:	2c00      	cmp	r4, #0
10000fc4:	d03d      	beq.n	10001042 <alarm_pool_add_alarm_at+0xb6>
10000fc6:	0067      	lsls	r7, r4, #1
10000fc8:	682b      	ldr	r3, [r5, #0]
10000fca:	193f      	adds	r7, r7, r4
10000fcc:	3f03      	subs	r7, #3
10000fce:	19db      	adds	r3, r3, r7
10000fd0:	785a      	ldrb	r2, [r3, #1]
10000fd2:	73aa      	strb	r2, [r5, #14]
10000fd4:	2a00      	cmp	r2, #0
10000fd6:	d100      	bne.n	10000fda <alarm_pool_add_alarm_at+0x4e>
10000fd8:	73ea      	strb	r2, [r5, #15]
10000fda:	68b1      	ldr	r1, [r6, #8]
10000fdc:	4a47      	ldr	r2, [pc, #284]	; (100010fc <alarm_pool_add_alarm_at+0x170>)
10000fde:	468c      	mov	ip, r1
10000fe0:	9800      	ldr	r0, [sp, #0]
10000fe2:	9901      	ldr	r1, [sp, #4]
10000fe4:	18a2      	adds	r2, r4, r2
10000fe6:	0112      	lsls	r2, r2, #4
10000fe8:	4462      	add	r2, ip
10000fea:	6010      	str	r0, [r2, #0]
10000fec:	6051      	str	r1, [r2, #4]
10000fee:	990e      	ldr	r1, [sp, #56]	; 0x38
10000ff0:	6091      	str	r1, [r2, #8]
10000ff2:	990f      	ldr	r1, [sp, #60]	; 0x3c
10000ff4:	60d1      	str	r1, [r2, #12]
10000ff6:	4642      	mov	r2, r8
10000ff8:	709a      	strb	r2, [r3, #2]
10000ffa:	705a      	strb	r2, [r3, #1]
10000ffc:	701a      	strb	r2, [r3, #0]
10000ffe:	7b6b      	ldrb	r3, [r5, #13]
10001000:	469a      	mov	sl, r3
10001002:	2b00      	cmp	r3, #0
10001004:	d067      	beq.n	100010d6 <alarm_pool_add_alarm_at+0x14a>
10001006:	0022      	movs	r2, r4
10001008:	0019      	movs	r1, r3
1000100a:	68a8      	ldr	r0, [r5, #8]
1000100c:	686b      	ldr	r3, [r5, #4]
1000100e:	4798      	blx	r3
10001010:	682a      	ldr	r2, [r5, #0]
10001012:	2800      	cmp	r0, #0
10001014:	d052      	beq.n	100010bc <alarm_pool_add_alarm_at+0x130>
10001016:	4653      	mov	r3, sl
10001018:	4650      	mov	r0, sl
1000101a:	005b      	lsls	r3, r3, #1
1000101c:	4453      	add	r3, sl
1000101e:	19d7      	adds	r7, r2, r7
10001020:	3b03      	subs	r3, #3
10001022:	70b8      	strb	r0, [r7, #2]
10001024:	18d1      	adds	r1, r2, r3
10001026:	5cd3      	ldrb	r3, [r2, r3]
10001028:	2b00      	cmp	r3, #0
1000102a:	d000      	beq.n	1000102e <alarm_pool_add_alarm_at+0xa2>
1000102c:	707b      	strb	r3, [r7, #1]
1000102e:	4653      	mov	r3, sl
10001030:	700c      	strb	r4, [r1, #0]
10001032:	736b      	strb	r3, [r5, #13]
10001034:	4554      	cmp	r4, sl
10001036:	d04f      	beq.n	100010d8 <alarm_pool_add_alarm_at+0x14c>
10001038:	68f3      	ldr	r3, [r6, #12]
1000103a:	191b      	adds	r3, r3, r4
1000103c:	3b01      	subs	r3, #1
1000103e:	7818      	ldrb	r0, [r3, #0]
10001040:	e000      	b.n	10001044 <alarm_pool_add_alarm_at+0xb8>
10001042:	2000      	movs	r0, #0
10001044:	6873      	ldr	r3, [r6, #4]
10001046:	f3bf 8f5f 	dmb	sy
1000104a:	4642      	mov	r2, r8
1000104c:	601a      	str	r2, [r3, #0]
1000104e:	f38b 8810 	msr	PRIMASK, fp
10001052:	2c00      	cmp	r4, #0
10001054:	d04f      	beq.n	100010f6 <alarm_pool_add_alarm_at+0x16a>
10001056:	464b      	mov	r3, r9
10001058:	2b00      	cmp	r3, #0
1000105a:	d108      	bne.n	1000106e <alarm_pool_add_alarm_at+0xe2>
1000105c:	0200      	lsls	r0, r0, #8
1000105e:	4320      	orrs	r0, r4
10001060:	b005      	add	sp, #20
10001062:	bcf0      	pop	{r4, r5, r6, r7}
10001064:	46bb      	mov	fp, r7
10001066:	46b2      	mov	sl, r6
10001068:	46a9      	mov	r9, r5
1000106a:	46a0      	mov	r8, r4
1000106c:	bdf0      	pop	{r4, r5, r6, r7, pc}
1000106e:	9b03      	ldr	r3, [sp, #12]
10001070:	2b00      	cmp	r3, #0
10001072:	d03e      	beq.n	100010f2 <alarm_pool_add_alarm_at+0x166>
10001074:	9b0e      	ldr	r3, [sp, #56]	; 0x38
10001076:	2000      	movs	r0, #0
10001078:	990f      	ldr	r1, [sp, #60]	; 0x3c
1000107a:	4798      	blx	r3
1000107c:	0003      	movs	r3, r0
1000107e:	0004      	movs	r4, r0
10001080:	000d      	movs	r5, r1
10001082:	430b      	orrs	r3, r1
10001084:	d035      	beq.n	100010f2 <alarm_pool_add_alarm_at+0x166>
10001086:	2900      	cmp	r1, #0
10001088:	da0a      	bge.n	100010a0 <alarm_pool_add_alarm_at+0x114>
1000108a:	9a00      	ldr	r2, [sp, #0]
1000108c:	9b01      	ldr	r3, [sp, #4]
1000108e:	1b12      	subs	r2, r2, r4
10001090:	41ab      	sbcs	r3, r5
10001092:	9200      	str	r2, [sp, #0]
10001094:	9301      	str	r3, [sp, #4]
10001096:	2b00      	cmp	r3, #0
10001098:	db0a      	blt.n	100010b0 <alarm_pool_add_alarm_at+0x124>
1000109a:	9b03      	ldr	r3, [sp, #12]
1000109c:	4699      	mov	r9, r3
1000109e:	e785      	b.n	10000fac <alarm_pool_add_alarm_at+0x20>
100010a0:	f000 f904 	bl	100012ac <time_us_64>
100010a4:	1824      	adds	r4, r4, r0
100010a6:	414d      	adcs	r5, r1
100010a8:	9400      	str	r4, [sp, #0]
100010aa:	9501      	str	r5, [sp, #4]
100010ac:	2d00      	cmp	r5, #0
100010ae:	daf4      	bge.n	1000109a <alarm_pool_add_alarm_at+0x10e>
100010b0:	2301      	movs	r3, #1
100010b2:	4c13      	ldr	r4, [pc, #76]	; (10001100 <alarm_pool_add_alarm_at+0x174>)
100010b4:	425b      	negs	r3, r3
100010b6:	9300      	str	r3, [sp, #0]
100010b8:	9401      	str	r4, [sp, #4]
100010ba:	e7ee      	b.n	1000109a <alarm_pool_add_alarm_at+0x10e>
100010bc:	4653      	mov	r3, sl
100010be:	005b      	lsls	r3, r3, #1
100010c0:	4453      	add	r3, sl
100010c2:	3b03      	subs	r3, #3
100010c4:	18d3      	adds	r3, r2, r3
100010c6:	709c      	strb	r4, [r3, #2]
100010c8:	19d1      	adds	r1, r2, r7
100010ca:	5dd2      	ldrb	r2, [r2, r7]
100010cc:	2a00      	cmp	r2, #0
100010ce:	d000      	beq.n	100010d2 <alarm_pool_add_alarm_at+0x146>
100010d0:	705a      	strb	r2, [r3, #1]
100010d2:	4653      	mov	r3, sl
100010d4:	700b      	strb	r3, [r1, #0]
100010d6:	736c      	strb	r4, [r5, #13]
100010d8:	7d30      	ldrb	r0, [r6, #20]
100010da:	9a00      	ldr	r2, [sp, #0]
100010dc:	9b01      	ldr	r3, [sp, #4]
100010de:	f000 f935 	bl	1000134c <hardware_alarm_set_target>
100010e2:	4681      	mov	r9, r0
100010e4:	2800      	cmp	r0, #0
100010e6:	d0a7      	beq.n	10001038 <alarm_pool_add_alarm_at+0xac>
100010e8:	0021      	movs	r1, r4
100010ea:	6830      	ldr	r0, [r6, #0]
100010ec:	f000 fb52 	bl	10001794 <ph_remove_and_free_node>
100010f0:	e7a2      	b.n	10001038 <alarm_pool_add_alarm_at+0xac>
100010f2:	2000      	movs	r0, #0
100010f4:	e7b4      	b.n	10001060 <alarm_pool_add_alarm_at+0xd4>
100010f6:	2001      	movs	r0, #1
100010f8:	4240      	negs	r0, r0
100010fa:	e7b1      	b.n	10001060 <alarm_pool_add_alarm_at+0xd4>
100010fc:	0fffffff 	.word	0x0fffffff
10001100:	7fffffff 	.word	0x7fffffff

10001104 <best_effort_wfe_or_timeout>:
10001104:	b5f0      	push	{r4, r5, r6, r7, lr}
10001106:	f3ef 8305 	mrs	r3, IPSR
1000110a:	46ce      	mov	lr, r9
1000110c:	4647      	mov	r7, r8
1000110e:	b580      	push	{r7, lr}
10001110:	0005      	movs	r5, r0
10001112:	000c      	movs	r4, r1
10001114:	b085      	sub	sp, #20
10001116:	2b00      	cmp	r3, #0
10001118:	d012      	beq.n	10001140 <best_effort_wfe_or_timeout+0x3c>
1000111a:	4a2c      	ldr	r2, [pc, #176]	; (100011cc <best_effort_wfe_or_timeout+0xc8>)
1000111c:	2000      	movs	r0, #0
1000111e:	6a53      	ldr	r3, [r2, #36]	; 0x24
10001120:	429c      	cmp	r4, r3
10001122:	d803      	bhi.n	1000112c <best_effort_wfe_or_timeout+0x28>
10001124:	6a92      	ldr	r2, [r2, #40]	; 0x28
10001126:	3001      	adds	r0, #1
10001128:	42aa      	cmp	r2, r5
1000112a:	d304      	bcc.n	10001136 <best_effort_wfe_or_timeout+0x32>
1000112c:	b005      	add	sp, #20
1000112e:	bcc0      	pop	{r6, r7}
10001130:	46b9      	mov	r9, r7
10001132:	46b0      	mov	r8, r6
10001134:	bdf0      	pop	{r4, r5, r6, r7, pc}
10001136:	1ae0      	subs	r0, r4, r3
10001138:	1e42      	subs	r2, r0, #1
1000113a:	4190      	sbcs	r0, r2
1000113c:	b2c0      	uxtb	r0, r0
1000113e:	e7f5      	b.n	1000112c <best_effort_wfe_or_timeout+0x28>
10001140:	4e23      	ldr	r6, [pc, #140]	; (100011d0 <best_effort_wfe_or_timeout+0xcc>)
10001142:	9302      	str	r3, [sp, #8]
10001144:	9301      	str	r3, [sp, #4]
10001146:	4b23      	ldr	r3, [pc, #140]	; (100011d4 <best_effort_wfe_or_timeout+0xd0>)
10001148:	0002      	movs	r2, r0
1000114a:	9300      	str	r3, [sp, #0]
1000114c:	0030      	movs	r0, r6
1000114e:	000b      	movs	r3, r1
10001150:	f7ff ff1c 	bl	10000f8c <alarm_pool_add_alarm_at>
10001154:	1e03      	subs	r3, r0, #0
10001156:	dde0      	ble.n	1000111a <best_effort_wfe_or_timeout+0x16>
10001158:	bf20      	wfe
1000115a:	6871      	ldr	r1, [r6, #4]
1000115c:	f3ef 8710 	mrs	r7, PRIMASK
10001160:	b672      	cpsid	i
10001162:	680a      	ldr	r2, [r1, #0]
10001164:	2a00      	cmp	r2, #0
10001166:	d0fc      	beq.n	10001162 <best_effort_wfe_or_timeout+0x5e>
10001168:	f3bf 8f5f 	dmb	sy
1000116c:	b2da      	uxtb	r2, r3
1000116e:	4694      	mov	ip, r2
10001170:	6830      	ldr	r0, [r6, #0]
10001172:	7b42      	ldrb	r2, [r0, #13]
10001174:	4562      	cmp	r2, ip
10001176:	d01d      	beq.n	100011b4 <best_effort_wfe_or_timeout+0xb0>
10001178:	22ff      	movs	r2, #255	; 0xff
1000117a:	401a      	ands	r2, r3
1000117c:	0051      	lsls	r1, r2, #1
1000117e:	4689      	mov	r9, r1
10001180:	6801      	ldr	r1, [r0, #0]
10001182:	4491      	add	r9, r2
10001184:	4688      	mov	r8, r1
10001186:	4649      	mov	r1, r9
10001188:	4441      	add	r1, r8
1000118a:	3903      	subs	r1, #3
1000118c:	7889      	ldrb	r1, [r1, #2]
1000118e:	2900      	cmp	r1, #0
10001190:	d013      	beq.n	100011ba <best_effort_wfe_or_timeout+0xb6>
10001192:	68f1      	ldr	r1, [r6, #12]
10001194:	0a1b      	lsrs	r3, r3, #8
10001196:	4688      	mov	r8, r1
10001198:	4442      	add	r2, r8
1000119a:	3a01      	subs	r2, #1
1000119c:	7812      	ldrb	r2, [r2, #0]
1000119e:	b2db      	uxtb	r3, r3
100011a0:	429a      	cmp	r2, r3
100011a2:	d00f      	beq.n	100011c4 <best_effort_wfe_or_timeout+0xc0>
100011a4:	6873      	ldr	r3, [r6, #4]
100011a6:	f3bf 8f5f 	dmb	sy
100011aa:	2200      	movs	r2, #0
100011ac:	601a      	str	r2, [r3, #0]
100011ae:	f387 8810 	msr	PRIMASK, r7
100011b2:	e7b2      	b.n	1000111a <best_effort_wfe_or_timeout+0x16>
100011b4:	22ff      	movs	r2, #255	; 0xff
100011b6:	401a      	ands	r2, r3
100011b8:	e7eb      	b.n	10001192 <best_effort_wfe_or_timeout+0x8e>
100011ba:	6932      	ldr	r2, [r6, #16]
100011bc:	4293      	cmp	r3, r2
100011be:	d1f1      	bne.n	100011a4 <best_effort_wfe_or_timeout+0xa0>
100011c0:	6131      	str	r1, [r6, #16]
100011c2:	e7ef      	b.n	100011a4 <best_effort_wfe_or_timeout+0xa0>
100011c4:	4661      	mov	r1, ip
100011c6:	f000 fae5 	bl	10001794 <ph_remove_and_free_node>
100011ca:	e7eb      	b.n	100011a4 <best_effort_wfe_or_timeout+0xa0>
100011cc:	40054000 	.word	0x40054000
100011d0:	2000037c 	.word	0x2000037c
100011d4:	10000c35 	.word	0x10000c35

100011d8 <hardware_alarm_irq_handler>:
100011d8:	b5f0      	push	{r4, r5, r6, r7, lr}
100011da:	f3ef 8205 	mrs	r2, IPSR
100011de:	46d6      	mov	lr, sl
100011e0:	464f      	mov	r7, r9
100011e2:	4646      	mov	r6, r8
100011e4:	0010      	movs	r0, r2
100011e6:	b5c0      	push	{r6, r7, lr}
100011e8:	3810      	subs	r0, #16
100011ea:	f3ef 8810 	mrs	r8, PRIMASK
100011ee:	b672      	cpsid	i
100011f0:	4c21      	ldr	r4, [pc, #132]	; (10001278 <hardware_alarm_irq_handler+0xa0>)
100011f2:	6823      	ldr	r3, [r4, #0]
100011f4:	2b00      	cmp	r3, #0
100011f6:	d0fc      	beq.n	100011f2 <hardware_alarm_irq_handler+0x1a>
100011f8:	f3bf 8f5f 	dmb	sy
100011fc:	2301      	movs	r3, #1
100011fe:	0019      	movs	r1, r3
10001200:	4081      	lsls	r1, r0
10001202:	4d1e      	ldr	r5, [pc, #120]	; (1000127c <hardware_alarm_irq_handler+0xa4>)
10001204:	001f      	movs	r7, r3
10001206:	6369      	str	r1, [r5, #52]	; 0x34
10001208:	46aa      	mov	sl, r5
1000120a:	4d1d      	ldr	r5, [pc, #116]	; (10001280 <hardware_alarm_irq_handler+0xa8>)
1000120c:	6029      	str	r1, [r5, #0]
1000120e:	4d1d      	ldr	r5, [pc, #116]	; (10001284 <hardware_alarm_irq_handler+0xac>)
10001210:	782e      	ldrb	r6, [r5, #0]
10001212:	46ac      	mov	ip, r5
10001214:	0035      	movs	r5, r6
10001216:	40c5      	lsrs	r5, r0
10001218:	402f      	ands	r7, r5
1000121a:	422b      	tst	r3, r5
1000121c:	d109      	bne.n	10001232 <hardware_alarm_irq_handler+0x5a>
1000121e:	f3bf 8f5f 	dmb	sy
10001222:	6027      	str	r7, [r4, #0]
10001224:	f388 8810 	msr	PRIMASK, r8
10001228:	bce0      	pop	{r5, r6, r7}
1000122a:	46ba      	mov	sl, r7
1000122c:	46b1      	mov	r9, r6
1000122e:	46a8      	mov	r8, r5
10001230:	bdf0      	pop	{r4, r5, r6, r7, pc}
10001232:	4653      	mov	r3, sl
10001234:	4d14      	ldr	r5, [pc, #80]	; (10001288 <hardware_alarm_irq_handler+0xb0>)
10001236:	6a5f      	ldr	r7, [r3, #36]	; 0x24
10001238:	0083      	lsls	r3, r0, #2
1000123a:	595d      	ldr	r5, [r3, r5]
1000123c:	42af      	cmp	r7, r5
1000123e:	d30e      	bcc.n	1000125e <hardware_alarm_irq_handler+0x86>
10001240:	4a12      	ldr	r2, [pc, #72]	; (1000128c <hardware_alarm_irq_handler+0xb4>)
10001242:	438e      	bics	r6, r1
10001244:	589b      	ldr	r3, [r3, r2]
10001246:	4662      	mov	r2, ip
10001248:	7016      	strb	r6, [r2, #0]
1000124a:	f3bf 8f5f 	dmb	sy
1000124e:	2200      	movs	r2, #0
10001250:	6022      	str	r2, [r4, #0]
10001252:	f388 8810 	msr	PRIMASK, r8
10001256:	2b00      	cmp	r3, #0
10001258:	d0e6      	beq.n	10001228 <hardware_alarm_irq_handler+0x50>
1000125a:	4798      	blx	r3
1000125c:	e7e4      	b.n	10001228 <hardware_alarm_irq_handler+0x50>
1000125e:	4b0c      	ldr	r3, [pc, #48]	; (10001290 <hardware_alarm_irq_handler+0xb8>)
10001260:	0092      	lsls	r2, r2, #2
10001262:	469c      	mov	ip, r3
10001264:	4462      	add	r2, ip
10001266:	6813      	ldr	r3, [r2, #0]
10001268:	6013      	str	r3, [r2, #0]
1000126a:	f3bf 8f5f 	dmb	sy
1000126e:	2300      	movs	r3, #0
10001270:	6023      	str	r3, [r4, #0]
10001272:	f388 8810 	msr	PRIMASK, r8
10001276:	e7d7      	b.n	10001228 <hardware_alarm_irq_handler+0x50>
10001278:	d0000128 	.word	0xd0000128
1000127c:	40054000 	.word	0x40054000
10001280:	4005703c 	.word	0x4005703c
10001284:	200008d1 	.word	0x200008d1
10001288:	200008bc 	.word	0x200008bc
1000128c:	2000081c 	.word	0x2000081c
10001290:	40053fd0 	.word	0x40053fd0

10001294 <hardware_alarm_claim>:
10001294:	b510      	push	{r4, lr}
10001296:	0001      	movs	r1, r0
10001298:	4a02      	ldr	r2, [pc, #8]	; (100012a4 <hardware_alarm_claim+0x10>)
1000129a:	4803      	ldr	r0, [pc, #12]	; (100012a8 <hardware_alarm_claim+0x14>)
1000129c:	f7ff fa7a 	bl	10000794 <hw_claim_or_assert>
100012a0:	bd10      	pop	{r4, pc}
100012a2:	46c0      	nop			; (mov r8, r8)
100012a4:	10002d3c 	.word	0x10002d3c
100012a8:	200008ce 	.word	0x200008ce

100012ac <time_us_64>:
100012ac:	4b03      	ldr	r3, [pc, #12]	; (100012bc <time_us_64+0x10>)
100012ae:	6a59      	ldr	r1, [r3, #36]	; 0x24
100012b0:	000a      	movs	r2, r1
100012b2:	6a98      	ldr	r0, [r3, #40]	; 0x28
100012b4:	6a59      	ldr	r1, [r3, #36]	; 0x24
100012b6:	428a      	cmp	r2, r1
100012b8:	d1fa      	bne.n	100012b0 <time_us_64+0x4>
100012ba:	4770      	bx	lr
100012bc:	40054000 	.word	0x40054000

100012c0 <hardware_alarm_set_callback>:
100012c0:	b570      	push	{r4, r5, r6, lr}
100012c2:	0004      	movs	r4, r0
100012c4:	000d      	movs	r5, r1
100012c6:	f3ef 8610 	mrs	r6, PRIMASK
100012ca:	b672      	cpsid	i
100012cc:	4a1a      	ldr	r2, [pc, #104]	; (10001338 <hardware_alarm_set_callback+0x78>)
100012ce:	6813      	ldr	r3, [r2, #0]
100012d0:	2b00      	cmp	r3, #0
100012d2:	d0fc      	beq.n	100012ce <hardware_alarm_set_callback+0xe>
100012d4:	f3bf 8f5f 	dmb	sy
100012d8:	2d00      	cmp	r5, #0
100012da:	d01b      	beq.n	10001314 <hardware_alarm_set_callback+0x54>
100012dc:	0020      	movs	r0, r4
100012de:	f7ff faf5 	bl	100008cc <irq_get_vtable_handler>
100012e2:	4916      	ldr	r1, [pc, #88]	; (1000133c <hardware_alarm_set_callback+0x7c>)
100012e4:	4281      	cmp	r1, r0
100012e6:	d00a      	beq.n	100012fe <hardware_alarm_set_callback+0x3e>
100012e8:	0020      	movs	r0, r4
100012ea:	f7ff faf7 	bl	100008dc <irq_set_exclusive_handler>
100012ee:	2101      	movs	r1, #1
100012f0:	0020      	movs	r0, r4
100012f2:	f7ff fad9 	bl	100008a8 <irq_set_enabled>
100012f6:	2301      	movs	r3, #1
100012f8:	40a3      	lsls	r3, r4
100012fa:	4a11      	ldr	r2, [pc, #68]	; (10001340 <hardware_alarm_set_callback+0x80>)
100012fc:	6013      	str	r3, [r2, #0]
100012fe:	4b11      	ldr	r3, [pc, #68]	; (10001344 <hardware_alarm_set_callback+0x84>)
10001300:	00a4      	lsls	r4, r4, #2
10001302:	50e5      	str	r5, [r4, r3]
10001304:	f3bf 8f5f 	dmb	sy
10001308:	2200      	movs	r2, #0
1000130a:	4b0b      	ldr	r3, [pc, #44]	; (10001338 <hardware_alarm_set_callback+0x78>)
1000130c:	601a      	str	r2, [r3, #0]
1000130e:	f386 8810 	msr	PRIMASK, r6
10001312:	bd70      	pop	{r4, r5, r6, pc}
10001314:	4b0b      	ldr	r3, [pc, #44]	; (10001344 <hardware_alarm_set_callback+0x84>)
10001316:	00a2      	lsls	r2, r4, #2
10001318:	50d5      	str	r5, [r2, r3]
1000131a:	2201      	movs	r2, #1
1000131c:	40a2      	lsls	r2, r4
1000131e:	490a      	ldr	r1, [pc, #40]	; (10001348 <hardware_alarm_set_callback+0x88>)
10001320:	0020      	movs	r0, r4
10001322:	780b      	ldrb	r3, [r1, #0]
10001324:	4393      	bics	r3, r2
10001326:	700b      	strb	r3, [r1, #0]
10001328:	4904      	ldr	r1, [pc, #16]	; (1000133c <hardware_alarm_set_callback+0x7c>)
1000132a:	f7ff fb01 	bl	10000930 <irq_remove_handler>
1000132e:	2100      	movs	r1, #0
10001330:	0020      	movs	r0, r4
10001332:	f7ff fab9 	bl	100008a8 <irq_set_enabled>
10001336:	e7e5      	b.n	10001304 <hardware_alarm_set_callback+0x44>
10001338:	d0000128 	.word	0xd0000128
1000133c:	100011d9 	.word	0x100011d9
10001340:	40056038 	.word	0x40056038
10001344:	2000081c 	.word	0x2000081c
10001348:	200008d1 	.word	0x200008d1

1000134c <hardware_alarm_set_target>:
1000134c:	b5f0      	push	{r4, r5, r6, r7, lr}
1000134e:	464f      	mov	r7, r9
10001350:	46d6      	mov	lr, sl
10001352:	4646      	mov	r6, r8
10001354:	b5c0      	push	{r6, r7, lr}
10001356:	0007      	movs	r7, r0
10001358:	4c2c      	ldr	r4, [pc, #176]	; (1000140c <hardware_alarm_set_target+0xc0>)
1000135a:	6a61      	ldr	r1, [r4, #36]	; 0x24
1000135c:	000d      	movs	r5, r1
1000135e:	6aa6      	ldr	r6, [r4, #40]	; 0x28
10001360:	6a61      	ldr	r1, [r4, #36]	; 0x24
10001362:	42a9      	cmp	r1, r5
10001364:	d1fa      	bne.n	1000135c <hardware_alarm_set_target+0x10>
10001366:	428b      	cmp	r3, r1
10001368:	d808      	bhi.n	1000137c <hardware_alarm_set_target+0x30>
1000136a:	d005      	beq.n	10001378 <hardware_alarm_set_target+0x2c>
1000136c:	2001      	movs	r0, #1
1000136e:	bce0      	pop	{r5, r6, r7}
10001370:	46ba      	mov	sl, r7
10001372:	46b1      	mov	r9, r6
10001374:	46a8      	mov	r8, r5
10001376:	bdf0      	pop	{r4, r5, r6, r7, pc}
10001378:	42b2      	cmp	r2, r6
1000137a:	d9f7      	bls.n	1000136c <hardware_alarm_set_target+0x20>
1000137c:	f3ef 8a10 	mrs	sl, PRIMASK
10001380:	b672      	cpsid	i
10001382:	4823      	ldr	r0, [pc, #140]	; (10001410 <hardware_alarm_set_target+0xc4>)
10001384:	6801      	ldr	r1, [r0, #0]
10001386:	2900      	cmp	r1, #0
10001388:	d0fc      	beq.n	10001384 <hardware_alarm_set_target+0x38>
1000138a:	f3bf 8f5f 	dmb	sy
1000138e:	2501      	movs	r5, #1
10001390:	40bd      	lsls	r5, r7
10001392:	4920      	ldr	r1, [pc, #128]	; (10001414 <hardware_alarm_set_target+0xc8>)
10001394:	4c1d      	ldr	r4, [pc, #116]	; (1000140c <hardware_alarm_set_target+0xc0>)
10001396:	4688      	mov	r8, r1
10001398:	7809      	ldrb	r1, [r1, #0]
1000139a:	4689      	mov	r9, r1
1000139c:	4329      	orrs	r1, r5
1000139e:	b2c9      	uxtb	r1, r1
100013a0:	468c      	mov	ip, r1
100013a2:	4641      	mov	r1, r8
100013a4:	4660      	mov	r0, ip
100013a6:	7008      	strb	r0, [r1, #0]
100013a8:	1d39      	adds	r1, r7, #4
100013aa:	481b      	ldr	r0, [pc, #108]	; (10001418 <hardware_alarm_set_target+0xcc>)
100013ac:	0089      	lsls	r1, r1, #2
100013ae:	6365      	str	r5, [r4, #52]	; 0x34
100013b0:	510a      	str	r2, [r1, r4]
100013b2:	00b9      	lsls	r1, r7, #2
100013b4:	500b      	str	r3, [r1, r0]
100013b6:	6a21      	ldr	r1, [r4, #32]
100013b8:	2000      	movs	r0, #0
100013ba:	4229      	tst	r1, r5
100013bc:	d019      	beq.n	100013f2 <hardware_alarm_set_target+0xa6>
100013be:	6a61      	ldr	r1, [r4, #36]	; 0x24
100013c0:	0008      	movs	r0, r1
100013c2:	6aa6      	ldr	r6, [r4, #40]	; 0x28
100013c4:	6a61      	ldr	r1, [r4, #36]	; 0x24
100013c6:	4281      	cmp	r1, r0
100013c8:	d1fa      	bne.n	100013c0 <hardware_alarm_set_target+0x74>
100013ca:	428b      	cmp	r3, r1
100013cc:	d819      	bhi.n	10001402 <hardware_alarm_set_target+0xb6>
100013ce:	d101      	bne.n	100013d4 <hardware_alarm_set_target+0x88>
100013d0:	42b2      	cmp	r2, r6
100013d2:	d816      	bhi.n	10001402 <hardware_alarm_set_target+0xb6>
100013d4:	45cc      	cmp	ip, r9
100013d6:	d016      	beq.n	10001406 <hardware_alarm_set_target+0xba>
100013d8:	4b0c      	ldr	r3, [pc, #48]	; (1000140c <hardware_alarm_set_target+0xc0>)
100013da:	201f      	movs	r0, #31
100013dc:	621d      	str	r5, [r3, #32]
100013de:	635d      	str	r5, [r3, #52]	; 0x34
100013e0:	2301      	movs	r3, #1
100013e2:	4007      	ands	r7, r0
100013e4:	40bb      	lsls	r3, r7
100013e6:	4a0d      	ldr	r2, [pc, #52]	; (1000141c <hardware_alarm_set_target+0xd0>)
100013e8:	381e      	subs	r0, #30
100013ea:	6013      	str	r3, [r2, #0]
100013ec:	4643      	mov	r3, r8
100013ee:	464a      	mov	r2, r9
100013f0:	701a      	strb	r2, [r3, #0]
100013f2:	f3bf 8f5f 	dmb	sy
100013f6:	2200      	movs	r2, #0
100013f8:	4b05      	ldr	r3, [pc, #20]	; (10001410 <hardware_alarm_set_target+0xc4>)
100013fa:	601a      	str	r2, [r3, #0]
100013fc:	f38a 8810 	msr	PRIMASK, sl
10001400:	e7b5      	b.n	1000136e <hardware_alarm_set_target+0x22>
10001402:	2000      	movs	r0, #0
10001404:	e7f5      	b.n	100013f2 <hardware_alarm_set_target+0xa6>
10001406:	2001      	movs	r0, #1
10001408:	e7f3      	b.n	100013f2 <hardware_alarm_set_target+0xa6>
1000140a:	46c0      	nop			; (mov r8, r8)
1000140c:	40054000 	.word	0x40054000
10001410:	d0000128 	.word	0xd0000128
10001414:	200008d1 	.word	0x200008d1
10001418:	200008bc 	.word	0x200008bc
1000141c:	e000e280 	.word	0xe000e280

10001420 <hardware_alarm_cancel>:
10001420:	f3ef 8c10 	mrs	ip, PRIMASK
10001424:	b672      	cpsid	i
10001426:	490a      	ldr	r1, [pc, #40]	; (10001450 <hardware_alarm_cancel+0x30>)
10001428:	680b      	ldr	r3, [r1, #0]
1000142a:	2b00      	cmp	r3, #0
1000142c:	d0fc      	beq.n	10001428 <hardware_alarm_cancel+0x8>
1000142e:	f3bf 8f5f 	dmb	sy
10001432:	2301      	movs	r3, #1
10001434:	4083      	lsls	r3, r0
10001436:	4a07      	ldr	r2, [pc, #28]	; (10001454 <hardware_alarm_cancel+0x34>)
10001438:	4807      	ldr	r0, [pc, #28]	; (10001458 <hardware_alarm_cancel+0x38>)
1000143a:	6213      	str	r3, [r2, #32]
1000143c:	7802      	ldrb	r2, [r0, #0]
1000143e:	439a      	bics	r2, r3
10001440:	7002      	strb	r2, [r0, #0]
10001442:	f3bf 8f5f 	dmb	sy
10001446:	2300      	movs	r3, #0
10001448:	600b      	str	r3, [r1, #0]
1000144a:	f38c 8810 	msr	PRIMASK, ip
1000144e:	4770      	bx	lr
10001450:	d0000128 	.word	0xd0000128
10001454:	40054000 	.word	0x40054000
10001458:	200008d1 	.word	0x200008d1

1000145c <ph_merge_nodes>:
1000145c:	b570      	push	{r4, r5, r6, lr}
1000145e:	0005      	movs	r5, r0
10001460:	0014      	movs	r4, r2
10001462:	0016      	movs	r6, r2
10001464:	2900      	cmp	r1, #0
10001466:	d015      	beq.n	10001494 <ph_merge_nodes+0x38>
10001468:	000c      	movs	r4, r1
1000146a:	2a00      	cmp	r2, #0
1000146c:	d012      	beq.n	10001494 <ph_merge_nodes+0x38>
1000146e:	6880      	ldr	r0, [r0, #8]
10001470:	686b      	ldr	r3, [r5, #4]
10001472:	4798      	blx	r3
10001474:	6829      	ldr	r1, [r5, #0]
10001476:	2800      	cmp	r0, #0
10001478:	d00e      	beq.n	10001498 <ph_merge_nodes+0x3c>
1000147a:	0073      	lsls	r3, r6, #1
1000147c:	199b      	adds	r3, r3, r6
1000147e:	0062      	lsls	r2, r4, #1
10001480:	3b03      	subs	r3, #3
10001482:	1912      	adds	r2, r2, r4
10001484:	18cb      	adds	r3, r1, r3
10001486:	3a03      	subs	r2, #3
10001488:	709c      	strb	r4, [r3, #2]
1000148a:	1888      	adds	r0, r1, r2
1000148c:	5c8a      	ldrb	r2, [r1, r2]
1000148e:	2a00      	cmp	r2, #0
10001490:	d115      	bne.n	100014be <ph_merge_nodes+0x62>
10001492:	7006      	strb	r6, [r0, #0]
10001494:	0020      	movs	r0, r4
10001496:	bd70      	pop	{r4, r5, r6, pc}
10001498:	0063      	lsls	r3, r4, #1
1000149a:	191b      	adds	r3, r3, r4
1000149c:	0072      	lsls	r2, r6, #1
1000149e:	3b03      	subs	r3, #3
100014a0:	1992      	adds	r2, r2, r6
100014a2:	18cb      	adds	r3, r1, r3
100014a4:	3a03      	subs	r2, #3
100014a6:	709e      	strb	r6, [r3, #2]
100014a8:	1888      	adds	r0, r1, r2
100014aa:	5c8a      	ldrb	r2, [r1, r2]
100014ac:	2a00      	cmp	r2, #0
100014ae:	d102      	bne.n	100014b6 <ph_merge_nodes+0x5a>
100014b0:	7004      	strb	r4, [r0, #0]
100014b2:	0034      	movs	r4, r6
100014b4:	e7ee      	b.n	10001494 <ph_merge_nodes+0x38>
100014b6:	705a      	strb	r2, [r3, #1]
100014b8:	7004      	strb	r4, [r0, #0]
100014ba:	0034      	movs	r4, r6
100014bc:	e7ea      	b.n	10001494 <ph_merge_nodes+0x38>
100014be:	705a      	strb	r2, [r3, #1]
100014c0:	7006      	strb	r6, [r0, #0]
100014c2:	e7e7      	b.n	10001494 <ph_merge_nodes+0x38>

100014c4 <ph_post_alloc_init>:
100014c4:	b530      	push	{r4, r5, lr}
100014c6:	6083      	str	r3, [r0, #8]
100014c8:	2300      	movs	r3, #0
100014ca:	b2cc      	uxtb	r4, r1
100014cc:	7343      	strb	r3, [r0, #13]
100014ce:	3301      	adds	r3, #1
100014d0:	7304      	strb	r4, [r0, #12]
100014d2:	6042      	str	r2, [r0, #4]
100014d4:	7383      	strb	r3, [r0, #14]
100014d6:	73c4      	strb	r4, [r0, #15]
100014d8:	000d      	movs	r5, r1
100014da:	6800      	ldr	r0, [r0, #0]
100014dc:	2c01      	cmp	r4, #1
100014de:	d906      	bls.n	100014ee <ph_post_alloc_init+0x2a>
100014e0:	1c42      	adds	r2, r0, #1
100014e2:	3301      	adds	r3, #1
100014e4:	b2db      	uxtb	r3, r3
100014e6:	7013      	strb	r3, [r2, #0]
100014e8:	3203      	adds	r2, #3
100014ea:	429c      	cmp	r4, r3
100014ec:	d1f9      	bne.n	100014e2 <ph_post_alloc_init+0x1e>
100014ee:	21ff      	movs	r1, #255	; 0xff
100014f0:	4029      	ands	r1, r5
100014f2:	004b      	lsls	r3, r1, #1
100014f4:	1859      	adds	r1, r3, r1
100014f6:	2300      	movs	r3, #0
100014f8:	1840      	adds	r0, r0, r1
100014fa:	3803      	subs	r0, #3
100014fc:	7043      	strb	r3, [r0, #1]
100014fe:	bd30      	pop	{r4, r5, pc}

10001500 <ph_merge_two_pass>:
10001500:	b5f8      	push	{r3, r4, r5, r6, r7, lr}
10001502:	46ce      	mov	lr, r9
10001504:	4647      	mov	r7, r8
10001506:	0006      	movs	r6, r0
10001508:	000c      	movs	r4, r1
1000150a:	b580      	push	{r7, lr}
1000150c:	2900      	cmp	r1, #0
1000150e:	d007      	beq.n	10001520 <ph_merge_two_pass+0x20>
10001510:	004d      	lsls	r5, r1, #1
10001512:	6803      	ldr	r3, [r0, #0]
10001514:	186d      	adds	r5, r5, r1
10001516:	3d03      	subs	r5, #3
10001518:	195a      	adds	r2, r3, r5
1000151a:	7857      	ldrb	r7, [r2, #1]
1000151c:	2f00      	cmp	r7, #0
1000151e:	d104      	bne.n	1000152a <ph_merge_two_pass+0x2a>
10001520:	0020      	movs	r0, r4
10001522:	bcc0      	pop	{r6, r7}
10001524:	46b9      	mov	r9, r7
10001526:	46b0      	mov	r8, r6
10001528:	bdf8      	pop	{r3, r4, r5, r6, r7, pc}
1000152a:	0079      	lsls	r1, r7, #1
1000152c:	19c9      	adds	r1, r1, r7
1000152e:	3903      	subs	r1, #3
10001530:	4688      	mov	r8, r1
10001532:	4443      	add	r3, r8
10001534:	7859      	ldrb	r1, [r3, #1]
10001536:	4689      	mov	r9, r1
10001538:	2100      	movs	r1, #0
1000153a:	7059      	strb	r1, [r3, #1]
1000153c:	7051      	strb	r1, [r2, #1]
1000153e:	6873      	ldr	r3, [r6, #4]
10001540:	003a      	movs	r2, r7
10001542:	0021      	movs	r1, r4
10001544:	6880      	ldr	r0, [r0, #8]
10001546:	4798      	blx	r3
10001548:	6833      	ldr	r3, [r6, #0]
1000154a:	2800      	cmp	r0, #0
1000154c:	d014      	beq.n	10001578 <ph_merge_two_pass+0x78>
1000154e:	4642      	mov	r2, r8
10001550:	189a      	adds	r2, r3, r2
10001552:	7094      	strb	r4, [r2, #2]
10001554:	1959      	adds	r1, r3, r5
10001556:	5d5b      	ldrb	r3, [r3, r5]
10001558:	2b00      	cmp	r3, #0
1000155a:	d000      	beq.n	1000155e <ph_merge_two_pass+0x5e>
1000155c:	7053      	strb	r3, [r2, #1]
1000155e:	700f      	strb	r7, [r1, #0]
10001560:	0027      	movs	r7, r4
10001562:	4649      	mov	r1, r9
10001564:	0030      	movs	r0, r6
10001566:	f7ff ffcb 	bl	10001500 <ph_merge_two_pass>
1000156a:	0039      	movs	r1, r7
1000156c:	0002      	movs	r2, r0
1000156e:	0030      	movs	r0, r6
10001570:	f7ff ff74 	bl	1000145c <ph_merge_nodes>
10001574:	0004      	movs	r4, r0
10001576:	e7d3      	b.n	10001520 <ph_merge_two_pass+0x20>
10001578:	4642      	mov	r2, r8
1000157a:	4641      	mov	r1, r8
1000157c:	195d      	adds	r5, r3, r5
1000157e:	70af      	strb	r7, [r5, #2]
10001580:	189a      	adds	r2, r3, r2
10001582:	5c5b      	ldrb	r3, [r3, r1]
10001584:	2b00      	cmp	r3, #0
10001586:	d000      	beq.n	1000158a <ph_merge_two_pass+0x8a>
10001588:	706b      	strb	r3, [r5, #1]
1000158a:	7014      	strb	r4, [r2, #0]
1000158c:	e7e9      	b.n	10001562 <ph_merge_two_pass+0x62>
1000158e:	46c0      	nop			; (mov r8, r8)

10001590 <ph_remove_any_head>:
10001590:	b5f0      	push	{r4, r5, r6, r7, lr}
10001592:	4657      	mov	r7, sl
10001594:	4645      	mov	r5, r8
10001596:	46de      	mov	lr, fp
10001598:	464e      	mov	r6, r9
1000159a:	b5e0      	push	{r5, r6, r7, lr}
1000159c:	000d      	movs	r5, r1
1000159e:	006b      	lsls	r3, r5, #1
100015a0:	6801      	ldr	r1, [r0, #0]
100015a2:	195b      	adds	r3, r3, r5
100015a4:	1edf      	subs	r7, r3, #3
100015a6:	0004      	movs	r4, r0
100015a8:	5dc8      	ldrb	r0, [r1, r7]
100015aa:	b083      	sub	sp, #12
100015ac:	9201      	str	r2, [sp, #4]
100015ae:	19ca      	adds	r2, r1, r7
100015b0:	2800      	cmp	r0, #0
100015b2:	d050      	beq.n	10001656 <ph_remove_any_head+0xc6>
100015b4:	0043      	lsls	r3, r0, #1
100015b6:	181b      	adds	r3, r3, r0
100015b8:	3b03      	subs	r3, #3
100015ba:	18cb      	adds	r3, r1, r3
100015bc:	785e      	ldrb	r6, [r3, #1]
100015be:	46b4      	mov	ip, r6
100015c0:	2e00      	cmp	r6, #0
100015c2:	d11a      	bne.n	100015fa <ph_remove_any_head+0x6a>
100015c4:	9e01      	ldr	r6, [sp, #4]
100015c6:	2e00      	cmp	r6, #0
100015c8:	d042      	beq.n	10001650 <ph_remove_any_head+0xc0>
100015ca:	7be6      	ldrb	r6, [r4, #15]
100015cc:	2e00      	cmp	r6, #0
100015ce:	d004      	beq.n	100015da <ph_remove_any_head+0x4a>
100015d0:	0073      	lsls	r3, r6, #1
100015d2:	199b      	adds	r3, r3, r6
100015d4:	18cb      	adds	r3, r1, r3
100015d6:	3b03      	subs	r3, #3
100015d8:	705d      	strb	r5, [r3, #1]
100015da:	7ba3      	ldrb	r3, [r4, #14]
100015dc:	2b00      	cmp	r3, #0
100015de:	d100      	bne.n	100015e2 <ph_remove_any_head+0x52>
100015e0:	73a5      	strb	r5, [r4, #14]
100015e2:	73e5      	strb	r5, [r4, #15]
100015e4:	2800      	cmp	r0, #0
100015e6:	d12f      	bne.n	10001648 <ph_remove_any_head+0xb8>
100015e8:	2300      	movs	r3, #0
100015ea:	7053      	strb	r3, [r2, #1]
100015ec:	b003      	add	sp, #12
100015ee:	bcf0      	pop	{r4, r5, r6, r7}
100015f0:	46bb      	mov	fp, r7
100015f2:	46b2      	mov	sl, r6
100015f4:	46a9      	mov	r9, r5
100015f6:	46a0      	mov	r8, r4
100015f8:	bdf0      	pop	{r4, r5, r6, r7, pc}
100015fa:	0072      	lsls	r2, r6, #1
100015fc:	4462      	add	r2, ip
100015fe:	3a03      	subs	r2, #3
10001600:	1889      	adds	r1, r1, r2
10001602:	784a      	ldrb	r2, [r1, #1]
10001604:	4690      	mov	r8, r2
10001606:	2200      	movs	r2, #0
10001608:	704a      	strb	r2, [r1, #1]
1000160a:	4691      	mov	r9, r2
1000160c:	705a      	strb	r2, [r3, #1]
1000160e:	0001      	movs	r1, r0
10001610:	0032      	movs	r2, r6
10001612:	0020      	movs	r0, r4
10001614:	f7ff ff22 	bl	1000145c <ph_merge_nodes>
10001618:	4643      	mov	r3, r8
1000161a:	4682      	mov	sl, r0
1000161c:	2b00      	cmp	r3, #0
1000161e:	d007      	beq.n	10001630 <ph_remove_any_head+0xa0>
10001620:	005b      	lsls	r3, r3, #1
10001622:	6821      	ldr	r1, [r4, #0]
10001624:	4443      	add	r3, r8
10001626:	3b03      	subs	r3, #3
10001628:	18cb      	adds	r3, r1, r3
1000162a:	785a      	ldrb	r2, [r3, #1]
1000162c:	2a00      	cmp	r2, #0
1000162e:	d116      	bne.n	1000165e <ph_remove_any_head+0xce>
10001630:	4642      	mov	r2, r8
10001632:	4651      	mov	r1, sl
10001634:	0020      	movs	r0, r4
10001636:	f7ff ff11 	bl	1000145c <ph_merge_nodes>
1000163a:	6821      	ldr	r1, [r4, #0]
1000163c:	9b01      	ldr	r3, [sp, #4]
1000163e:	19ca      	adds	r2, r1, r7
10001640:	2b00      	cmp	r3, #0
10001642:	d1c2      	bne.n	100015ca <ph_remove_any_head+0x3a>
10001644:	2800      	cmp	r0, #0
10001646:	d0cf      	beq.n	100015e8 <ph_remove_any_head+0x58>
10001648:	0043      	lsls	r3, r0, #1
1000164a:	181b      	adds	r3, r3, r0
1000164c:	3b03      	subs	r3, #3
1000164e:	18cb      	adds	r3, r1, r3
10001650:	2100      	movs	r1, #0
10001652:	7099      	strb	r1, [r3, #2]
10001654:	e7c8      	b.n	100015e8 <ph_remove_any_head+0x58>
10001656:	9b01      	ldr	r3, [sp, #4]
10001658:	2b00      	cmp	r3, #0
1000165a:	d1b6      	bne.n	100015ca <ph_remove_any_head+0x3a>
1000165c:	e7c4      	b.n	100015e8 <ph_remove_any_head+0x58>
1000165e:	0050      	lsls	r0, r2, #1
10001660:	1880      	adds	r0, r0, r2
10001662:	3803      	subs	r0, #3
10001664:	1809      	adds	r1, r1, r0
10001666:	7848      	ldrb	r0, [r1, #1]
10001668:	4683      	mov	fp, r0
1000166a:	4648      	mov	r0, r9
1000166c:	7048      	strb	r0, [r1, #1]
1000166e:	7058      	strb	r0, [r3, #1]
10001670:	4641      	mov	r1, r8
10001672:	0020      	movs	r0, r4
10001674:	f7ff fef2 	bl	1000145c <ph_merge_nodes>
10001678:	4659      	mov	r1, fp
1000167a:	4680      	mov	r8, r0
1000167c:	0020      	movs	r0, r4
1000167e:	f7ff ff3f 	bl	10001500 <ph_merge_two_pass>
10001682:	4641      	mov	r1, r8
10001684:	0002      	movs	r2, r0
10001686:	0020      	movs	r0, r4
10001688:	f7ff fee8 	bl	1000145c <ph_merge_nodes>
1000168c:	4680      	mov	r8, r0
1000168e:	e7cf      	b.n	10001630 <ph_remove_any_head+0xa0>

10001690 <ph_remove_head>:
10001690:	b5f0      	push	{r4, r5, r6, r7, lr}
10001692:	4657      	mov	r7, sl
10001694:	4645      	mov	r5, r8
10001696:	46de      	mov	lr, fp
10001698:	464e      	mov	r6, r9
1000169a:	b5e0      	push	{r5, r6, r7, lr}
1000169c:	b083      	sub	sp, #12
1000169e:	9101      	str	r1, [sp, #4]
100016a0:	7b45      	ldrb	r5, [r0, #13]
100016a2:	0004      	movs	r4, r0
100016a4:	006b      	lsls	r3, r5, #1
100016a6:	6800      	ldr	r0, [r0, #0]
100016a8:	195b      	adds	r3, r3, r5
100016aa:	1edf      	subs	r7, r3, #3
100016ac:	5dc1      	ldrb	r1, [r0, r7]
100016ae:	19c2      	adds	r2, r0, r7
100016b0:	2900      	cmp	r1, #0
100016b2:	d052      	beq.n	1000175a <ph_remove_head+0xca>
100016b4:	004b      	lsls	r3, r1, #1
100016b6:	185b      	adds	r3, r3, r1
100016b8:	3b03      	subs	r3, #3
100016ba:	18c3      	adds	r3, r0, r3
100016bc:	785e      	ldrb	r6, [r3, #1]
100016be:	46b4      	mov	ip, r6
100016c0:	2e00      	cmp	r6, #0
100016c2:	d11c      	bne.n	100016fe <ph_remove_head+0x6e>
100016c4:	9e01      	ldr	r6, [sp, #4]
100016c6:	2e00      	cmp	r6, #0
100016c8:	d044      	beq.n	10001754 <ph_remove_head+0xc4>
100016ca:	7be6      	ldrb	r6, [r4, #15]
100016cc:	2e00      	cmp	r6, #0
100016ce:	d004      	beq.n	100016da <ph_remove_head+0x4a>
100016d0:	0073      	lsls	r3, r6, #1
100016d2:	199b      	adds	r3, r3, r6
100016d4:	18c3      	adds	r3, r0, r3
100016d6:	3b03      	subs	r3, #3
100016d8:	705d      	strb	r5, [r3, #1]
100016da:	7ba3      	ldrb	r3, [r4, #14]
100016dc:	2b00      	cmp	r3, #0
100016de:	d100      	bne.n	100016e2 <ph_remove_head+0x52>
100016e0:	73a5      	strb	r5, [r4, #14]
100016e2:	73e5      	strb	r5, [r4, #15]
100016e4:	2900      	cmp	r1, #0
100016e6:	d131      	bne.n	1000174c <ph_remove_head+0xbc>
100016e8:	2300      	movs	r3, #0
100016ea:	0028      	movs	r0, r5
100016ec:	7053      	strb	r3, [r2, #1]
100016ee:	7361      	strb	r1, [r4, #13]
100016f0:	b003      	add	sp, #12
100016f2:	bcf0      	pop	{r4, r5, r6, r7}
100016f4:	46bb      	mov	fp, r7
100016f6:	46b2      	mov	sl, r6
100016f8:	46a9      	mov	r9, r5
100016fa:	46a0      	mov	r8, r4
100016fc:	bdf0      	pop	{r4, r5, r6, r7, pc}
100016fe:	0072      	lsls	r2, r6, #1
10001700:	4462      	add	r2, ip
10001702:	3a03      	subs	r2, #3
10001704:	1880      	adds	r0, r0, r2
10001706:	7842      	ldrb	r2, [r0, #1]
10001708:	4690      	mov	r8, r2
1000170a:	2200      	movs	r2, #0
1000170c:	7042      	strb	r2, [r0, #1]
1000170e:	4691      	mov	r9, r2
10001710:	705a      	strb	r2, [r3, #1]
10001712:	0020      	movs	r0, r4
10001714:	0032      	movs	r2, r6
10001716:	f7ff fea1 	bl	1000145c <ph_merge_nodes>
1000171a:	4643      	mov	r3, r8
1000171c:	4682      	mov	sl, r0
1000171e:	2b00      	cmp	r3, #0
10001720:	d007      	beq.n	10001732 <ph_remove_head+0xa2>
10001722:	005b      	lsls	r3, r3, #1
10001724:	6821      	ldr	r1, [r4, #0]
10001726:	4443      	add	r3, r8
10001728:	3b03      	subs	r3, #3
1000172a:	18cb      	adds	r3, r1, r3
1000172c:	785a      	ldrb	r2, [r3, #1]
1000172e:	2a00      	cmp	r2, #0
10001730:	d117      	bne.n	10001762 <ph_remove_head+0xd2>
10001732:	4642      	mov	r2, r8
10001734:	4651      	mov	r1, sl
10001736:	0020      	movs	r0, r4
10001738:	f7ff fe90 	bl	1000145c <ph_merge_nodes>
1000173c:	9b01      	ldr	r3, [sp, #4]
1000173e:	0001      	movs	r1, r0
10001740:	6820      	ldr	r0, [r4, #0]
10001742:	19c2      	adds	r2, r0, r7
10001744:	2b00      	cmp	r3, #0
10001746:	d1c0      	bne.n	100016ca <ph_remove_head+0x3a>
10001748:	2900      	cmp	r1, #0
1000174a:	d0cd      	beq.n	100016e8 <ph_remove_head+0x58>
1000174c:	004b      	lsls	r3, r1, #1
1000174e:	185b      	adds	r3, r3, r1
10001750:	3b03      	subs	r3, #3
10001752:	18c3      	adds	r3, r0, r3
10001754:	2000      	movs	r0, #0
10001756:	7098      	strb	r0, [r3, #2]
10001758:	e7c6      	b.n	100016e8 <ph_remove_head+0x58>
1000175a:	9b01      	ldr	r3, [sp, #4]
1000175c:	2b00      	cmp	r3, #0
1000175e:	d1b4      	bne.n	100016ca <ph_remove_head+0x3a>
10001760:	e7c2      	b.n	100016e8 <ph_remove_head+0x58>
10001762:	0050      	lsls	r0, r2, #1
10001764:	1880      	adds	r0, r0, r2
10001766:	3803      	subs	r0, #3
10001768:	1809      	adds	r1, r1, r0
1000176a:	7848      	ldrb	r0, [r1, #1]
1000176c:	4683      	mov	fp, r0
1000176e:	4648      	mov	r0, r9
10001770:	7048      	strb	r0, [r1, #1]
10001772:	7058      	strb	r0, [r3, #1]
10001774:	4641      	mov	r1, r8
10001776:	0020      	movs	r0, r4
10001778:	f7ff fe70 	bl	1000145c <ph_merge_nodes>
1000177c:	4659      	mov	r1, fp
1000177e:	4680      	mov	r8, r0
10001780:	0020      	movs	r0, r4
10001782:	f7ff febd 	bl	10001500 <ph_merge_two_pass>
10001786:	4641      	mov	r1, r8
10001788:	0002      	movs	r2, r0
1000178a:	0020      	movs	r0, r4
1000178c:	f7ff fe66 	bl	1000145c <ph_merge_nodes>
10001790:	4680      	mov	r8, r0
10001792:	e7ce      	b.n	10001732 <ph_remove_head+0xa2>

10001794 <ph_remove_and_free_node>:
10001794:	b570      	push	{r4, r5, r6, lr}
10001796:	0004      	movs	r4, r0
10001798:	2900      	cmp	r1, #0
1000179a:	d02c      	beq.n	100017f6 <ph_remove_and_free_node+0x62>
1000179c:	7b43      	ldrb	r3, [r0, #13]
1000179e:	428b      	cmp	r3, r1
100017a0:	d02e      	beq.n	10001800 <ph_remove_and_free_node+0x6c>
100017a2:	6805      	ldr	r5, [r0, #0]
100017a4:	0048      	lsls	r0, r1, #1
100017a6:	1840      	adds	r0, r0, r1
100017a8:	3803      	subs	r0, #3
100017aa:	1828      	adds	r0, r5, r0
100017ac:	7882      	ldrb	r2, [r0, #2]
100017ae:	2a00      	cmp	r2, #0
100017b0:	d021      	beq.n	100017f6 <ph_remove_and_free_node+0x62>
100017b2:	0053      	lsls	r3, r2, #1
100017b4:	189b      	adds	r3, r3, r2
100017b6:	3b03      	subs	r3, #3
100017b8:	5cea      	ldrb	r2, [r5, r3]
100017ba:	18ee      	adds	r6, r5, r3
100017bc:	428a      	cmp	r2, r1
100017be:	d102      	bne.n	100017c6 <ph_remove_and_free_node+0x32>
100017c0:	e01b      	b.n	100017fa <ph_remove_and_free_node+0x66>
100017c2:	2a00      	cmp	r2, #0
100017c4:	d008      	beq.n	100017d8 <ph_remove_and_free_node+0x44>
100017c6:	0053      	lsls	r3, r2, #1
100017c8:	189b      	adds	r3, r3, r2
100017ca:	3b03      	subs	r3, #3
100017cc:	18eb      	adds	r3, r5, r3
100017ce:	785a      	ldrb	r2, [r3, #1]
100017d0:	428a      	cmp	r2, r1
100017d2:	d1f6      	bne.n	100017c2 <ph_remove_and_free_node+0x2e>
100017d4:	7842      	ldrb	r2, [r0, #1]
100017d6:	705a      	strb	r2, [r3, #1]
100017d8:	2300      	movs	r3, #0
100017da:	2201      	movs	r2, #1
100017dc:	7083      	strb	r3, [r0, #2]
100017de:	7043      	strb	r3, [r0, #1]
100017e0:	0020      	movs	r0, r4
100017e2:	f7ff fed5 	bl	10001590 <ph_remove_any_head>
100017e6:	7b61      	ldrb	r1, [r4, #13]
100017e8:	0002      	movs	r2, r0
100017ea:	0020      	movs	r0, r4
100017ec:	f7ff fe36 	bl	1000145c <ph_merge_nodes>
100017f0:	7360      	strb	r0, [r4, #13]
100017f2:	2001      	movs	r0, #1
100017f4:	e000      	b.n	100017f8 <ph_remove_and_free_node+0x64>
100017f6:	2000      	movs	r0, #0
100017f8:	bd70      	pop	{r4, r5, r6, pc}
100017fa:	7843      	ldrb	r3, [r0, #1]
100017fc:	7033      	strb	r3, [r6, #0]
100017fe:	e7eb      	b.n	100017d8 <ph_remove_and_free_node+0x44>
10001800:	2201      	movs	r2, #1
10001802:	0019      	movs	r1, r3
10001804:	f7ff fec4 	bl	10001590 <ph_remove_any_head>
10001808:	7360      	strb	r0, [r4, #13]
1000180a:	2001      	movs	r0, #1
1000180c:	e7f4      	b.n	100017f8 <ph_remove_and_free_node+0x64>
1000180e:	46c0      	nop			; (mov r8, r8)

10001810 <clocks_init>:
10001810:	b530      	push	{r4, r5, lr}
10001812:	200c      	movs	r0, #12
10001814:	b083      	sub	sp, #12
10001816:	f000 f9b3 	bl	10001b80 <watchdog_start_tick>
1000181a:	f7fe ff9d 	bl	10000758 <running_on_fpga>
1000181e:	2800      	cmp	r0, #0
10001820:	d00e      	beq.n	10001840 <clocks_init+0x30>
10001822:	4b99      	ldr	r3, [pc, #612]	; (10001a88 <clocks_init+0x278>)
10001824:	4a99      	ldr	r2, [pc, #612]	; (10001a8c <clocks_init+0x27c>)
10001826:	601a      	str	r2, [r3, #0]
10001828:	605a      	str	r2, [r3, #4]
1000182a:	609a      	str	r2, [r3, #8]
1000182c:	60da      	str	r2, [r3, #12]
1000182e:	611a      	str	r2, [r3, #16]
10001830:	615a      	str	r2, [r3, #20]
10001832:	619a      	str	r2, [r3, #24]
10001834:	61da      	str	r2, [r3, #28]
10001836:	621a      	str	r2, [r3, #32]
10001838:	4a95      	ldr	r2, [pc, #596]	; (10001a90 <clocks_init+0x280>)
1000183a:	625a      	str	r2, [r3, #36]	; 0x24
1000183c:	b003      	add	sp, #12
1000183e:	bd30      	pop	{r4, r5, pc}
10001840:	4c94      	ldr	r4, [pc, #592]	; (10001a94 <clocks_init+0x284>)
10001842:	67a0      	str	r0, [r4, #120]	; 0x78
10001844:	f000 f9a4 	bl	10001b90 <xosc_init>
10001848:	2201      	movs	r2, #1
1000184a:	4b93      	ldr	r3, [pc, #588]	; (10001a98 <clocks_init+0x288>)
1000184c:	601a      	str	r2, [r3, #0]
1000184e:	6c63      	ldr	r3, [r4, #68]	; 0x44
10001850:	2b01      	cmp	r3, #1
10001852:	d1fc      	bne.n	1000184e <clocks_init+0x3e>
10001854:	2203      	movs	r2, #3
10001856:	4b91      	ldr	r3, [pc, #580]	; (10001a9c <clocks_init+0x28c>)
10001858:	601a      	str	r2, [r3, #0]
1000185a:	4a8e      	ldr	r2, [pc, #568]	; (10001a94 <clocks_init+0x284>)
1000185c:	6b93      	ldr	r3, [r2, #56]	; 0x38
1000185e:	2b01      	cmp	r3, #1
10001860:	d1fc      	bne.n	1000185c <clocks_init+0x4c>
10001862:	3301      	adds	r3, #1
10001864:	2101      	movs	r1, #1
10001866:	4a8e      	ldr	r2, [pc, #568]	; (10001aa0 <clocks_init+0x290>)
10001868:	488e      	ldr	r0, [pc, #568]	; (10001aa4 <clocks_init+0x294>)
1000186a:	9300      	str	r3, [sp, #0]
1000186c:	3304      	adds	r3, #4
1000186e:	f000 f937 	bl	10001ae0 <pll_init>
10001872:	2305      	movs	r3, #5
10001874:	4a8c      	ldr	r2, [pc, #560]	; (10001aa8 <clocks_init+0x298>)
10001876:	9300      	str	r3, [sp, #0]
10001878:	2101      	movs	r1, #1
1000187a:	488c      	ldr	r0, [pc, #560]	; (10001aac <clocks_init+0x29c>)
1000187c:	f000 f930 	bl	10001ae0 <pll_init>
10001880:	4b8b      	ldr	r3, [pc, #556]	; (10001ab0 <clocks_init+0x2a0>)
10001882:	685a      	ldr	r2, [r3, #4]
10001884:	2aff      	cmp	r2, #255	; 0xff
10001886:	d802      	bhi.n	1000188e <clocks_init+0x7e>
10001888:	2280      	movs	r2, #128	; 0x80
1000188a:	0052      	lsls	r2, r2, #1
1000188c:	605a      	str	r2, [r3, #4]
1000188e:	2280      	movs	r2, #128	; 0x80
10001890:	4c7d      	ldr	r4, [pc, #500]	; (10001a88 <clocks_init+0x278>)
10001892:	4b82      	ldr	r3, [pc, #520]	; (10001a9c <clocks_init+0x28c>)
10001894:	6921      	ldr	r1, [r4, #16]
10001896:	0112      	lsls	r2, r2, #4
10001898:	4d85      	ldr	r5, [pc, #532]	; (10001ab0 <clocks_init+0x2a0>)
1000189a:	601a      	str	r2, [r3, #0]
1000189c:	2900      	cmp	r1, #0
1000189e:	d007      	beq.n	100018b0 <clocks_init+0xa0>
100018a0:	6960      	ldr	r0, [r4, #20]
100018a2:	f000 faa7 	bl	10001df4 <__wrap___aeabi_uidiv>
100018a6:	1c43      	adds	r3, r0, #1
100018a8:	0058      	lsls	r0, r3, #1
100018aa:	18c0      	adds	r0, r0, r3
100018ac:	3803      	subs	r0, #3
100018ae:	d2fd      	bcs.n	100018ac <clocks_init+0x9c>
100018b0:	21e0      	movs	r1, #224	; 0xe0
100018b2:	4b7f      	ldr	r3, [pc, #508]	; (10001ab0 <clocks_init+0x2a0>)
100018b4:	2002      	movs	r0, #2
100018b6:	681a      	ldr	r2, [r3, #0]
100018b8:	4011      	ands	r1, r2
100018ba:	2280      	movs	r2, #128	; 0x80
100018bc:	0152      	lsls	r2, r2, #5
100018be:	432a      	orrs	r2, r5
100018c0:	6011      	str	r1, [r2, #0]
100018c2:	6819      	ldr	r1, [r3, #0]
100018c4:	4048      	eors	r0, r1
100018c6:	2103      	movs	r1, #3
100018c8:	4001      	ands	r1, r0
100018ca:	6011      	str	r1, [r2, #0]
100018cc:	2104      	movs	r1, #4
100018ce:	689a      	ldr	r2, [r3, #8]
100018d0:	4211      	tst	r1, r2
100018d2:	d0fc      	beq.n	100018ce <clocks_init+0xbe>
100018d4:	2280      	movs	r2, #128	; 0x80
100018d6:	2180      	movs	r1, #128	; 0x80
100018d8:	0192      	lsls	r2, r2, #6
100018da:	432a      	orrs	r2, r5
100018dc:	0109      	lsls	r1, r1, #4
100018de:	6011      	str	r1, [r2, #0]
100018e0:	2280      	movs	r2, #128	; 0x80
100018e2:	0052      	lsls	r2, r2, #1
100018e4:	605a      	str	r2, [r3, #4]
100018e6:	4b73      	ldr	r3, [pc, #460]	; (10001ab4 <clocks_init+0x2a4>)
100018e8:	6123      	str	r3, [r4, #16]
100018ea:	4b73      	ldr	r3, [pc, #460]	; (10001ab8 <clocks_init+0x2a8>)
100018ec:	6859      	ldr	r1, [r3, #4]
100018ee:	29ff      	cmp	r1, #255	; 0xff
100018f0:	d800      	bhi.n	100018f4 <clocks_init+0xe4>
100018f2:	605a      	str	r2, [r3, #4]
100018f4:	2103      	movs	r1, #3
100018f6:	4a68      	ldr	r2, [pc, #416]	; (10001a98 <clocks_init+0x288>)
100018f8:	4b6f      	ldr	r3, [pc, #444]	; (10001ab8 <clocks_init+0x2a8>)
100018fa:	6011      	str	r1, [r2, #0]
100018fc:	3902      	subs	r1, #2
100018fe:	689a      	ldr	r2, [r3, #8]
10001900:	4211      	tst	r1, r2
10001902:	d0fc      	beq.n	100018fe <clocks_init+0xee>
10001904:	20e0      	movs	r0, #224	; 0xe0
10001906:	681a      	ldr	r2, [r3, #0]
10001908:	4010      	ands	r0, r2
1000190a:	2280      	movs	r2, #128	; 0x80
1000190c:	0152      	lsls	r2, r2, #5
1000190e:	431a      	orrs	r2, r3
10001910:	6010      	str	r0, [r2, #0]
10001912:	6818      	ldr	r0, [r3, #0]
10001914:	4048      	eors	r0, r1
10001916:	2103      	movs	r1, #3
10001918:	4001      	ands	r1, r0
1000191a:	2002      	movs	r0, #2
1000191c:	6011      	str	r1, [r2, #0]
1000191e:	4966      	ldr	r1, [pc, #408]	; (10001ab8 <clocks_init+0x2a8>)
10001920:	688a      	ldr	r2, [r1, #8]
10001922:	4210      	tst	r0, r2
10001924:	d0fc      	beq.n	10001920 <clocks_init+0x110>
10001926:	2280      	movs	r2, #128	; 0x80
10001928:	0192      	lsls	r2, r2, #6
1000192a:	4313      	orrs	r3, r2
1000192c:	2280      	movs	r2, #128	; 0x80
1000192e:	0112      	lsls	r2, r2, #4
10001930:	601a      	str	r2, [r3, #0]
10001932:	2280      	movs	r2, #128	; 0x80
10001934:	4b61      	ldr	r3, [pc, #388]	; (10001abc <clocks_init+0x2ac>)
10001936:	0052      	lsls	r2, r2, #1
10001938:	604a      	str	r2, [r1, #4]
1000193a:	6163      	str	r3, [r4, #20]
1000193c:	4b60      	ldr	r3, [pc, #384]	; (10001ac0 <clocks_init+0x2b0>)
1000193e:	6859      	ldr	r1, [r3, #4]
10001940:	29ff      	cmp	r1, #255	; 0xff
10001942:	d800      	bhi.n	10001946 <clocks_init+0x136>
10001944:	605a      	str	r2, [r3, #4]
10001946:	2280      	movs	r2, #128	; 0x80
10001948:	4b5e      	ldr	r3, [pc, #376]	; (10001ac4 <clocks_init+0x2b4>)
1000194a:	69e1      	ldr	r1, [r4, #28]
1000194c:	0112      	lsls	r2, r2, #4
1000194e:	4d5c      	ldr	r5, [pc, #368]	; (10001ac0 <clocks_init+0x2b0>)
10001950:	601a      	str	r2, [r3, #0]
10001952:	2900      	cmp	r1, #0
10001954:	d007      	beq.n	10001966 <clocks_init+0x156>
10001956:	6960      	ldr	r0, [r4, #20]
10001958:	f000 fa4c 	bl	10001df4 <__wrap___aeabi_uidiv>
1000195c:	1c43      	adds	r3, r0, #1
1000195e:	0058      	lsls	r0, r3, #1
10001960:	18c0      	adds	r0, r0, r3
10001962:	3803      	subs	r0, #3
10001964:	d2fd      	bcs.n	10001962 <clocks_init+0x152>
10001966:	22e0      	movs	r2, #224	; 0xe0
10001968:	4955      	ldr	r1, [pc, #340]	; (10001ac0 <clocks_init+0x2b0>)
1000196a:	680b      	ldr	r3, [r1, #0]
1000196c:	401a      	ands	r2, r3
1000196e:	2380      	movs	r3, #128	; 0x80
10001970:	015b      	lsls	r3, r3, #5
10001972:	432b      	orrs	r3, r5
10001974:	601a      	str	r2, [r3, #0]
10001976:	2380      	movs	r3, #128	; 0x80
10001978:	2280      	movs	r2, #128	; 0x80
1000197a:	019b      	lsls	r3, r3, #6
1000197c:	432b      	orrs	r3, r5
1000197e:	0112      	lsls	r2, r2, #4
10001980:	601a      	str	r2, [r3, #0]
10001982:	2280      	movs	r2, #128	; 0x80
10001984:	4b41      	ldr	r3, [pc, #260]	; (10001a8c <clocks_init+0x27c>)
10001986:	0052      	lsls	r2, r2, #1
10001988:	604a      	str	r2, [r1, #4]
1000198a:	61e3      	str	r3, [r4, #28]
1000198c:	4b4e      	ldr	r3, [pc, #312]	; (10001ac8 <clocks_init+0x2b8>)
1000198e:	6859      	ldr	r1, [r3, #4]
10001990:	29ff      	cmp	r1, #255	; 0xff
10001992:	d800      	bhi.n	10001996 <clocks_init+0x186>
10001994:	605a      	str	r2, [r3, #4]
10001996:	2280      	movs	r2, #128	; 0x80
10001998:	4b4c      	ldr	r3, [pc, #304]	; (10001acc <clocks_init+0x2bc>)
1000199a:	6a21      	ldr	r1, [r4, #32]
1000199c:	0112      	lsls	r2, r2, #4
1000199e:	4d4a      	ldr	r5, [pc, #296]	; (10001ac8 <clocks_init+0x2b8>)
100019a0:	601a      	str	r2, [r3, #0]
100019a2:	2900      	cmp	r1, #0
100019a4:	d007      	beq.n	100019b6 <clocks_init+0x1a6>
100019a6:	6960      	ldr	r0, [r4, #20]
100019a8:	f000 fa24 	bl	10001df4 <__wrap___aeabi_uidiv>
100019ac:	1c43      	adds	r3, r0, #1
100019ae:	0058      	lsls	r0, r3, #1
100019b0:	18c0      	adds	r0, r0, r3
100019b2:	3803      	subs	r0, #3
100019b4:	d2fd      	bcs.n	100019b2 <clocks_init+0x1a2>
100019b6:	22e0      	movs	r2, #224	; 0xe0
100019b8:	4943      	ldr	r1, [pc, #268]	; (10001ac8 <clocks_init+0x2b8>)
100019ba:	680b      	ldr	r3, [r1, #0]
100019bc:	401a      	ands	r2, r3
100019be:	2380      	movs	r3, #128	; 0x80
100019c0:	015b      	lsls	r3, r3, #5
100019c2:	432b      	orrs	r3, r5
100019c4:	601a      	str	r2, [r3, #0]
100019c6:	2380      	movs	r3, #128	; 0x80
100019c8:	2280      	movs	r2, #128	; 0x80
100019ca:	019b      	lsls	r3, r3, #6
100019cc:	432b      	orrs	r3, r5
100019ce:	0112      	lsls	r2, r2, #4
100019d0:	601a      	str	r2, [r3, #0]
100019d2:	2380      	movs	r3, #128	; 0x80
100019d4:	2280      	movs	r2, #128	; 0x80
100019d6:	005b      	lsls	r3, r3, #1
100019d8:	604b      	str	r3, [r1, #4]
100019da:	4b2c      	ldr	r3, [pc, #176]	; (10001a8c <clocks_init+0x27c>)
100019dc:	02d2      	lsls	r2, r2, #11
100019de:	6223      	str	r3, [r4, #32]
100019e0:	4b3b      	ldr	r3, [pc, #236]	; (10001ad0 <clocks_init+0x2c0>)
100019e2:	6859      	ldr	r1, [r3, #4]
100019e4:	4291      	cmp	r1, r2
100019e6:	d200      	bcs.n	100019ea <clocks_init+0x1da>
100019e8:	605a      	str	r2, [r3, #4]
100019ea:	2280      	movs	r2, #128	; 0x80
100019ec:	4b39      	ldr	r3, [pc, #228]	; (10001ad4 <clocks_init+0x2c4>)
100019ee:	6a61      	ldr	r1, [r4, #36]	; 0x24
100019f0:	0112      	lsls	r2, r2, #4
100019f2:	4d37      	ldr	r5, [pc, #220]	; (10001ad0 <clocks_init+0x2c0>)
100019f4:	601a      	str	r2, [r3, #0]
100019f6:	2900      	cmp	r1, #0
100019f8:	d007      	beq.n	10001a0a <clocks_init+0x1fa>
100019fa:	6960      	ldr	r0, [r4, #20]
100019fc:	f000 f9fa 	bl	10001df4 <__wrap___aeabi_uidiv>
10001a00:	1c43      	adds	r3, r0, #1
10001a02:	0058      	lsls	r0, r3, #1
10001a04:	18c0      	adds	r0, r0, r3
10001a06:	3803      	subs	r0, #3
10001a08:	d2fd      	bcs.n	10001a06 <clocks_init+0x1f6>
10001a0a:	22e0      	movs	r2, #224	; 0xe0
10001a0c:	4930      	ldr	r1, [pc, #192]	; (10001ad0 <clocks_init+0x2c0>)
10001a0e:	680b      	ldr	r3, [r1, #0]
10001a10:	401a      	ands	r2, r3
10001a12:	2380      	movs	r3, #128	; 0x80
10001a14:	015b      	lsls	r3, r3, #5
10001a16:	432b      	orrs	r3, r5
10001a18:	601a      	str	r2, [r3, #0]
10001a1a:	2380      	movs	r3, #128	; 0x80
10001a1c:	2280      	movs	r2, #128	; 0x80
10001a1e:	019b      	lsls	r3, r3, #6
10001a20:	432b      	orrs	r3, r5
10001a22:	0112      	lsls	r2, r2, #4
10001a24:	601a      	str	r2, [r3, #0]
10001a26:	2380      	movs	r3, #128	; 0x80
10001a28:	02db      	lsls	r3, r3, #11
10001a2a:	604b      	str	r3, [r1, #4]
10001a2c:	4b18      	ldr	r3, [pc, #96]	; (10001a90 <clocks_init+0x280>)
10001a2e:	6263      	str	r3, [r4, #36]	; 0x24
10001a30:	4b29      	ldr	r3, [pc, #164]	; (10001ad8 <clocks_init+0x2c8>)
10001a32:	685a      	ldr	r2, [r3, #4]
10001a34:	2aff      	cmp	r2, #255	; 0xff
10001a36:	d802      	bhi.n	10001a3e <clocks_init+0x22e>
10001a38:	2280      	movs	r2, #128	; 0x80
10001a3a:	0052      	lsls	r2, r2, #1
10001a3c:	605a      	str	r2, [r3, #4]
10001a3e:	2280      	movs	r2, #128	; 0x80
10001a40:	4b26      	ldr	r3, [pc, #152]	; (10001adc <clocks_init+0x2cc>)
10001a42:	69a1      	ldr	r1, [r4, #24]
10001a44:	0112      	lsls	r2, r2, #4
10001a46:	4d24      	ldr	r5, [pc, #144]	; (10001ad8 <clocks_init+0x2c8>)
10001a48:	601a      	str	r2, [r3, #0]
10001a4a:	2900      	cmp	r1, #0
10001a4c:	d007      	beq.n	10001a5e <clocks_init+0x24e>
10001a4e:	6960      	ldr	r0, [r4, #20]
10001a50:	f000 f9d0 	bl	10001df4 <__wrap___aeabi_uidiv>
10001a54:	1c43      	adds	r3, r0, #1
10001a56:	0058      	lsls	r0, r3, #1
10001a58:	18c0      	adds	r0, r0, r3
10001a5a:	3803      	subs	r0, #3
10001a5c:	d2fd      	bcs.n	10001a5a <clocks_init+0x24a>
10001a5e:	22e0      	movs	r2, #224	; 0xe0
10001a60:	491d      	ldr	r1, [pc, #116]	; (10001ad8 <clocks_init+0x2c8>)
10001a62:	680b      	ldr	r3, [r1, #0]
10001a64:	401a      	ands	r2, r3
10001a66:	2380      	movs	r3, #128	; 0x80
10001a68:	015b      	lsls	r3, r3, #5
10001a6a:	432b      	orrs	r3, r5
10001a6c:	601a      	str	r2, [r3, #0]
10001a6e:	2380      	movs	r3, #128	; 0x80
10001a70:	2280      	movs	r2, #128	; 0x80
10001a72:	019b      	lsls	r3, r3, #6
10001a74:	432b      	orrs	r3, r5
10001a76:	0112      	lsls	r2, r2, #4
10001a78:	601a      	str	r2, [r3, #0]
10001a7a:	2380      	movs	r3, #128	; 0x80
10001a7c:	005b      	lsls	r3, r3, #1
10001a7e:	604b      	str	r3, [r1, #4]
10001a80:	4b0e      	ldr	r3, [pc, #56]	; (10001abc <clocks_init+0x2ac>)
10001a82:	61a3      	str	r3, [r4, #24]
10001a84:	e6da      	b.n	1000183c <clocks_init+0x2c>
10001a86:	46c0      	nop			; (mov r8, r8)
10001a88:	2000082c 	.word	0x2000082c
10001a8c:	02dc6c00 	.word	0x02dc6c00
10001a90:	0000b71b 	.word	0x0000b71b
10001a94:	40008000 	.word	0x40008000
10001a98:	4000b03c 	.word	0x4000b03c
10001a9c:	4000b030 	.word	0x4000b030
10001aa0:	59682f00 	.word	0x59682f00
10001aa4:	40028000 	.word	0x40028000
10001aa8:	47868c00 	.word	0x47868c00
10001aac:	4002c000 	.word	0x4002c000
10001ab0:	40008030 	.word	0x40008030
10001ab4:	00b71b00 	.word	0x00b71b00
10001ab8:	4000803c 	.word	0x4000803c
10001abc:	07735940 	.word	0x07735940
10001ac0:	40008054 	.word	0x40008054
10001ac4:	4000b054 	.word	0x4000b054
10001ac8:	40008060 	.word	0x40008060
10001acc:	4000b060 	.word	0x4000b060
10001ad0:	4000806c 	.word	0x4000806c
10001ad4:	4000b06c 	.word	0x4000b06c
10001ad8:	40008048 	.word	0x40008048
10001adc:	4000b048 	.word	0x4000b048

10001ae0 <pll_init>:
10001ae0:	b5f8      	push	{r3, r4, r5, r6, r7, lr}
10001ae2:	0004      	movs	r4, r0
10001ae4:	4821      	ldr	r0, [pc, #132]	; (10001b6c <pll_init+0x8c>)
10001ae6:	001d      	movs	r5, r3
10001ae8:	0017      	movs	r7, r2
10001aea:	000e      	movs	r6, r1
10001aec:	f000 f982 	bl	10001df4 <__wrap___aeabi_uidiv>
10001af0:	0001      	movs	r1, r0
10001af2:	0038      	movs	r0, r7
10001af4:	f000 f97e 	bl	10001df4 <__wrap___aeabi_uidiv>
10001af8:	9b06      	ldr	r3, [sp, #24]
10001afa:	0429      	lsls	r1, r5, #16
10001afc:	031b      	lsls	r3, r3, #12
10001afe:	4319      	orrs	r1, r3
10001b00:	6823      	ldr	r3, [r4, #0]
10001b02:	2b00      	cmp	r3, #0
10001b04:	db20      	blt.n	10001b48 <pll_init+0x68>
10001b06:	4b1a      	ldr	r3, [pc, #104]	; (10001b70 <pll_init+0x90>)
10001b08:	4d1a      	ldr	r5, [pc, #104]	; (10001b74 <pll_init+0x94>)
10001b0a:	18e2      	adds	r2, r4, r3
10001b0c:	4253      	negs	r3, r2
10001b0e:	415a      	adcs	r2, r3
10001b10:	2380      	movs	r3, #128	; 0x80
10001b12:	015b      	lsls	r3, r3, #5
10001b14:	469c      	mov	ip, r3
10001b16:	0312      	lsls	r2, r2, #12
10001b18:	4b17      	ldr	r3, [pc, #92]	; (10001b78 <pll_init+0x98>)
10001b1a:	4462      	add	r2, ip
10001b1c:	601a      	str	r2, [r3, #0]
10001b1e:	4b17      	ldr	r3, [pc, #92]	; (10001b7c <pll_init+0x9c>)
10001b20:	601a      	str	r2, [r3, #0]
10001b22:	0017      	movs	r7, r2
10001b24:	68ab      	ldr	r3, [r5, #8]
10001b26:	439f      	bics	r7, r3
10001b28:	d1fb      	bne.n	10001b22 <pll_init+0x42>
10001b2a:	22c0      	movs	r2, #192	; 0xc0
10001b2c:	1d23      	adds	r3, r4, #4
10001b2e:	0192      	lsls	r2, r2, #6
10001b30:	431a      	orrs	r2, r3
10001b32:	2321      	movs	r3, #33	; 0x21
10001b34:	6026      	str	r6, [r4, #0]
10001b36:	60a0      	str	r0, [r4, #8]
10001b38:	6013      	str	r3, [r2, #0]
10001b3a:	6823      	ldr	r3, [r4, #0]
10001b3c:	2b00      	cmp	r3, #0
10001b3e:	dafc      	bge.n	10001b3a <pll_init+0x5a>
10001b40:	2308      	movs	r3, #8
10001b42:	60e1      	str	r1, [r4, #12]
10001b44:	6013      	str	r3, [r2, #0]
10001b46:	bdf8      	pop	{r3, r4, r5, r6, r7, pc}
10001b48:	233f      	movs	r3, #63	; 0x3f
10001b4a:	6822      	ldr	r2, [r4, #0]
10001b4c:	4013      	ands	r3, r2
10001b4e:	42b3      	cmp	r3, r6
10001b50:	d1d9      	bne.n	10001b06 <pll_init+0x26>
10001b52:	68a3      	ldr	r3, [r4, #8]
10001b54:	051b      	lsls	r3, r3, #20
10001b56:	0d1b      	lsrs	r3, r3, #20
10001b58:	4283      	cmp	r3, r0
10001b5a:	d1d4      	bne.n	10001b06 <pll_init+0x26>
10001b5c:	22ee      	movs	r2, #238	; 0xee
10001b5e:	68e3      	ldr	r3, [r4, #12]
10001b60:	02d2      	lsls	r2, r2, #11
10001b62:	4013      	ands	r3, r2
10001b64:	428b      	cmp	r3, r1
10001b66:	d1ce      	bne.n	10001b06 <pll_init+0x26>
10001b68:	e7ed      	b.n	10001b46 <pll_init+0x66>
10001b6a:	46c0      	nop			; (mov r8, r8)
10001b6c:	00b71b00 	.word	0x00b71b00
10001b70:	bffd4000 	.word	0xbffd4000
10001b74:	4000c000 	.word	0x4000c000
10001b78:	4000e000 	.word	0x4000e000
10001b7c:	4000f000 	.word	0x4000f000

10001b80 <watchdog_start_tick>:
10001b80:	2380      	movs	r3, #128	; 0x80
10001b82:	4a02      	ldr	r2, [pc, #8]	; (10001b8c <watchdog_start_tick+0xc>)
10001b84:	009b      	lsls	r3, r3, #2
10001b86:	4303      	orrs	r3, r0
10001b88:	62d3      	str	r3, [r2, #44]	; 0x2c
10001b8a:	4770      	bx	lr
10001b8c:	40058000 	.word	0x40058000

10001b90 <xosc_init>:
10001b90:	23aa      	movs	r3, #170	; 0xaa
10001b92:	4a06      	ldr	r2, [pc, #24]	; (10001bac <xosc_init+0x1c>)
10001b94:	011b      	lsls	r3, r3, #4
10001b96:	6013      	str	r3, [r2, #0]
10001b98:	232f      	movs	r3, #47	; 0x2f
10001b9a:	4905      	ldr	r1, [pc, #20]	; (10001bb0 <xosc_init+0x20>)
10001b9c:	60d3      	str	r3, [r2, #12]
10001b9e:	4b05      	ldr	r3, [pc, #20]	; (10001bb4 <xosc_init+0x24>)
10001ba0:	6019      	str	r1, [r3, #0]
10001ba2:	6853      	ldr	r3, [r2, #4]
10001ba4:	2b00      	cmp	r3, #0
10001ba6:	dafc      	bge.n	10001ba2 <xosc_init+0x12>
10001ba8:	4770      	bx	lr
10001baa:	46c0      	nop			; (mov r8, r8)
10001bac:	40024000 	.word	0x40024000
10001bb0:	00fab000 	.word	0x00fab000
10001bb4:	40026000 	.word	0x40026000

10001bb8 <runtime_init>:
10001bb8:	4b2c      	ldr	r3, [pc, #176]	; (10001c6c <runtime_init+0xb4>)
10001bba:	4a2d      	ldr	r2, [pc, #180]	; (10001c70 <runtime_init+0xb8>)
10001bbc:	b570      	push	{r4, r5, r6, lr}
10001bbe:	601a      	str	r2, [r3, #0]
10001bc0:	4a2c      	ldr	r2, [pc, #176]	; (10001c74 <runtime_init+0xbc>)
10001bc2:	4b2d      	ldr	r3, [pc, #180]	; (10001c78 <runtime_init+0xc0>)
10001bc4:	492d      	ldr	r1, [pc, #180]	; (10001c7c <runtime_init+0xc4>)
10001bc6:	601a      	str	r2, [r3, #0]
10001bc8:	0014      	movs	r4, r2
10001bca:	688b      	ldr	r3, [r1, #8]
10001bcc:	439c      	bics	r4, r3
10001bce:	d1fb      	bne.n	10001bc8 <runtime_init+0x10>
10001bd0:	4d2b      	ldr	r5, [pc, #172]	; (10001c80 <runtime_init+0xc8>)
10001bd2:	4e2c      	ldr	r6, [pc, #176]	; (10001c84 <runtime_init+0xcc>)
10001bd4:	42b5      	cmp	r5, r6
10001bd6:	d208      	bcs.n	10001bea <runtime_init+0x32>
10001bd8:	3e01      	subs	r6, #1
10001bda:	1b76      	subs	r6, r6, r5
10001bdc:	08b6      	lsrs	r6, r6, #2
10001bde:	cd08      	ldmia	r5!, {r3}
10001be0:	4798      	blx	r3
10001be2:	0023      	movs	r3, r4
10001be4:	3401      	adds	r4, #1
10001be6:	42b3      	cmp	r3, r6
10001be8:	d1f9      	bne.n	10001bde <runtime_init+0x26>
10001bea:	f7ff fe11 	bl	10001810 <clocks_init>
10001bee:	4a26      	ldr	r2, [pc, #152]	; (10001c88 <runtime_init+0xd0>)
10001bf0:	4b21      	ldr	r3, [pc, #132]	; (10001c78 <runtime_init+0xc0>)
10001bf2:	601a      	str	r2, [r3, #0]
10001bf4:	4a21      	ldr	r2, [pc, #132]	; (10001c7c <runtime_init+0xc4>)
10001bf6:	6893      	ldr	r3, [r2, #8]
10001bf8:	43db      	mvns	r3, r3
10001bfa:	01db      	lsls	r3, r3, #7
10001bfc:	09dd      	lsrs	r5, r3, #7
10001bfe:	2b00      	cmp	r3, #0
10001c00:	d1f9      	bne.n	10001bf6 <runtime_init+0x3e>
10001c02:	2240      	movs	r2, #64	; 0x40
10001c04:	4b21      	ldr	r3, [pc, #132]	; (10001c8c <runtime_init+0xd4>)
10001c06:	4c22      	ldr	r4, [pc, #136]	; (10001c90 <runtime_init+0xd8>)
10001c08:	4e22      	ldr	r6, [pc, #136]	; (10001c94 <runtime_init+0xdc>)
10001c0a:	679a      	str	r2, [r3, #120]	; 0x78
10001c0c:	675a      	str	r2, [r3, #116]	; 0x74
10001c0e:	671a      	str	r2, [r3, #112]	; 0x70
10001c10:	66da      	str	r2, [r3, #108]	; 0x6c
10001c12:	42b4      	cmp	r4, r6
10001c14:	d208      	bcs.n	10001c28 <runtime_init+0x70>
10001c16:	6823      	ldr	r3, [r4, #0]
10001c18:	0020      	movs	r0, r4
10001c1a:	2b00      	cmp	r3, #0
10001c1c:	d020      	beq.n	10001c60 <runtime_init+0xa8>
10001c1e:	3408      	adds	r4, #8
10001c20:	f7fe ffe0 	bl	10000be4 <recursive_mutex_init>
10001c24:	42b4      	cmp	r4, r6
10001c26:	d3f6      	bcc.n	10001c16 <runtime_init+0x5e>
10001c28:	4e1b      	ldr	r6, [pc, #108]	; (10001c98 <runtime_init+0xe0>)
10001c2a:	4c1c      	ldr	r4, [pc, #112]	; (10001c9c <runtime_init+0xe4>)
10001c2c:	22c0      	movs	r2, #192	; 0xc0
10001c2e:	68a1      	ldr	r1, [r4, #8]
10001c30:	0030      	movs	r0, r6
10001c32:	f000 fde3 	bl	100027fc <__wrap___aeabi_memcpy>
10001c36:	60a6      	str	r6, [r4, #8]
10001c38:	f7fe fe1c 	bl	10000874 <spin_locks_reset>
10001c3c:	f7fe ffaa 	bl	10000b94 <irq_init_priorities>
10001c40:	f7ff f96e 	bl	10000f20 <alarm_pool_init_default>
10001c44:	4c16      	ldr	r4, [pc, #88]	; (10001ca0 <runtime_init+0xe8>)
10001c46:	4e17      	ldr	r6, [pc, #92]	; (10001ca4 <runtime_init+0xec>)
10001c48:	42b4      	cmp	r4, r6
10001c4a:	d208      	bcs.n	10001c5e <runtime_init+0xa6>
10001c4c:	3e01      	subs	r6, #1
10001c4e:	1b36      	subs	r6, r6, r4
10001c50:	08b6      	lsrs	r6, r6, #2
10001c52:	cc08      	ldmia	r4!, {r3}
10001c54:	4798      	blx	r3
10001c56:	002b      	movs	r3, r5
10001c58:	3501      	adds	r5, #1
10001c5a:	429e      	cmp	r6, r3
10001c5c:	d1f9      	bne.n	10001c52 <runtime_init+0x9a>
10001c5e:	bd70      	pop	{r4, r5, r6, pc}
10001c60:	3408      	adds	r4, #8
10001c62:	f7fe ffb1 	bl	10000bc8 <mutex_init>
10001c66:	42b4      	cmp	r4, r6
10001c68:	d3d5      	bcc.n	10001c16 <runtime_init+0x5e>
10001c6a:	e7dd      	b.n	10001c28 <runtime_init+0x70>
10001c6c:	4000e000 	.word	0x4000e000
10001c70:	fefbcdbf 	.word	0xfefbcdbf
10001c74:	003c7ffe 	.word	0x003c7ffe
10001c78:	4000f000 	.word	0x4000f000
10001c7c:	4000c000 	.word	0x4000c000
10001c80:	200003e0 	.word	0x200003e0
10001c84:	200003f0 	.word	0x200003f0
10001c88:	01ffffff 	.word	0x01ffffff
10001c8c:	4001f000 	.word	0x4001f000
10001c90:	200003d0 	.word	0x200003d0
10001c94:	200003e0 	.word	0x200003e0
10001c98:	20000000 	.word	0x20000000
10001c9c:	e000ed00 	.word	0xe000ed00
10001ca0:	200003f0 	.word	0x200003f0
10001ca4:	200003f4 	.word	0x200003f4

10001ca8 <_exit>:
10001ca8:	be00      	bkpt	0x0000
10001caa:	e7fd      	b.n	10001ca8 <_exit>

10001cac <exit>:
10001cac:	b510      	push	{r4, lr}
10001cae:	f7ff fffb 	bl	10001ca8 <_exit>
10001cb2:	46c0      	nop			; (mov r8, r8)

10001cb4 <panic>:
10001cb4:	b40f      	push	{r0, r1, r2, r3}
10001cb6:	b500      	push	{lr}
10001cb8:	4808      	ldr	r0, [pc, #32]	; (10001cdc <panic+0x28>)
10001cba:	b083      	sub	sp, #12
10001cbc:	f000 fed0 	bl	10002a60 <__wrap_puts>
10001cc0:	9b04      	ldr	r3, [sp, #16]
10001cc2:	2b00      	cmp	r3, #0
10001cc4:	d007      	beq.n	10001cd6 <panic+0x22>
10001cc6:	a905      	add	r1, sp, #20
10001cc8:	0018      	movs	r0, r3
10001cca:	9101      	str	r1, [sp, #4]
10001ccc:	f000 f818 	bl	10001d00 <weak_raw_vprintf>
10001cd0:	4803      	ldr	r0, [pc, #12]	; (10001ce0 <panic+0x2c>)
10001cd2:	f000 fec5 	bl	10002a60 <__wrap_puts>
10001cd6:	2001      	movs	r0, #1
10001cd8:	f7ff ffe6 	bl	10001ca8 <_exit>
10001cdc:	10002d60 	.word	0x10002d60
10001ce0:	10002d70 	.word	0x10002d70

10001ce4 <hard_assertion_failure>:
10001ce4:	b510      	push	{r4, lr}
10001ce6:	4801      	ldr	r0, [pc, #4]	; (10001cec <hard_assertion_failure+0x8>)
10001ce8:	f7ff ffe4 	bl	10001cb4 <panic>
10001cec:	10002d74 	.word	0x10002d74

10001cf0 <_out_char>:
10001cf0:	b510      	push	{r4, lr}
10001cf2:	2800      	cmp	r0, #0
10001cf4:	d100      	bne.n	10001cf8 <_out_char+0x8>
10001cf6:	bd10      	pop	{r4, pc}
10001cf8:	f000 fe66 	bl	100029c8 <__wrap_putchar>
10001cfc:	e7fb      	b.n	10001cf6 <_out_char+0x6>
10001cfe:	46c0      	nop			; (mov r8, r8)

10001d00 <weak_raw_vprintf>:
10001d00:	b510      	push	{r4, lr}
10001d02:	4a09      	ldr	r2, [pc, #36]	; (10001d28 <weak_raw_vprintf+0x28>)
10001d04:	0003      	movs	r3, r0
10001d06:	6814      	ldr	r4, [r2, #0]
10001d08:	b084      	sub	sp, #16
10001d0a:	2c00      	cmp	r4, #0
10001d0c:	d008      	beq.n	10001d20 <weak_raw_vprintf+0x20>
10001d0e:	2201      	movs	r2, #1
10001d10:	9100      	str	r1, [sp, #0]
10001d12:	4806      	ldr	r0, [pc, #24]	; (10001d2c <weak_raw_vprintf+0x2c>)
10001d14:	4252      	negs	r2, r2
10001d16:	a903      	add	r1, sp, #12
10001d18:	47a0      	blx	r4
10001d1a:	2001      	movs	r0, #1
10001d1c:	b004      	add	sp, #16
10001d1e:	bd10      	pop	{r4, pc}
10001d20:	f000 fe9e 	bl	10002a60 <__wrap_puts>
10001d24:	2000      	movs	r0, #0
10001d26:	e7f9      	b.n	10001d1c <weak_raw_vprintf+0x1c>
10001d28:	2000089c 	.word	0x2000089c
10001d2c:	10001cf1 	.word	0x10001cf1

10001d30 <__aeabi_bits_init>:
10001d30:	4801      	ldr	r0, [pc, #4]	; (10001d38 <__aeabi_bits_init+0x8>)
10001d32:	2104      	movs	r1, #4
10001d34:	4b01      	ldr	r3, [pc, #4]	; (10001d3c <__aeabi_bits_init+0xc>)
10001d36:	4718      	bx	r3
10001d38:	200003b0 	.word	0x200003b0
10001d3c:	10001d61 	.word	0x10001d61

10001d40 <rom_func_lookup>:
10001d40:	2314      	movs	r3, #20
10001d42:	b510      	push	{r4, lr}
10001d44:	0001      	movs	r1, r0
10001d46:	8818      	ldrh	r0, [r3, #0]
10001d48:	3304      	adds	r3, #4
10001d4a:	881b      	ldrh	r3, [r3, #0]
10001d4c:	4798      	blx	r3
10001d4e:	bd10      	pop	{r4, pc}

10001d50 <rom_data_lookup>:
10001d50:	2316      	movs	r3, #22
10001d52:	b510      	push	{r4, lr}
10001d54:	0001      	movs	r1, r0
10001d56:	8818      	ldrh	r0, [r3, #0]
10001d58:	3302      	adds	r3, #2
10001d5a:	881b      	ldrh	r3, [r3, #0]
10001d5c:	4798      	blx	r3
10001d5e:	bd10      	pop	{r4, pc}

10001d60 <rom_funcs_lookup>:
10001d60:	b5f8      	push	{r3, r4, r5, r6, r7, lr}
10001d62:	4647      	mov	r7, r8
10001d64:	46ce      	mov	lr, r9
10001d66:	b580      	push	{r7, lr}
10001d68:	1e0f      	subs	r7, r1, #0
10001d6a:	d019      	beq.n	10001da0 <rom_funcs_lookup+0x40>
10001d6c:	2314      	movs	r3, #20
10001d6e:	4699      	mov	r9, r3
10001d70:	3304      	adds	r3, #4
10001d72:	0004      	movs	r4, r0
10001d74:	2500      	movs	r5, #0
10001d76:	2601      	movs	r6, #1
10001d78:	4698      	mov	r8, r3
10001d7a:	464b      	mov	r3, r9
10001d7c:	8818      	ldrh	r0, [r3, #0]
10001d7e:	4643      	mov	r3, r8
10001d80:	6821      	ldr	r1, [r4, #0]
10001d82:	881b      	ldrh	r3, [r3, #0]
10001d84:	4798      	blx	r3
10001d86:	c401      	stmia	r4!, {r0}
10001d88:	1e43      	subs	r3, r0, #1
10001d8a:	4198      	sbcs	r0, r3
10001d8c:	3501      	adds	r5, #1
10001d8e:	4240      	negs	r0, r0
10001d90:	4006      	ands	r6, r0
10001d92:	42af      	cmp	r7, r5
10001d94:	d1f1      	bne.n	10001d7a <rom_funcs_lookup+0x1a>
10001d96:	0030      	movs	r0, r6
10001d98:	bcc0      	pop	{r6, r7}
10001d9a:	46b9      	mov	r9, r7
10001d9c:	46b0      	mov	r8, r6
10001d9e:	bdf8      	pop	{r3, r4, r5, r6, r7, pc}
10001da0:	2601      	movs	r6, #1
10001da2:	e7f8      	b.n	10001d96 <rom_funcs_lookup+0x36>

10001da4 <__wrap___aeabi_idiv>:
10001da4:	4a12      	ldr	r2, [pc, #72]	; (10001df0 <divmod_s32s32_savestate+0x18>)
10001da6:	6f93      	ldr	r3, [r2, #120]	; 0x78
10001da8:	089b      	lsrs	r3, r3, #2
10001daa:	d215      	bcs.n	10001dd8 <divmod_s32s32_savestate>

10001dac <divmod_s32s32_unsafe>:
10001dac:	6690      	str	r0, [r2, #104]	; 0x68
10001dae:	66d1      	str	r1, [r2, #108]	; 0x6c
10001db0:	2900      	cmp	r1, #0
10001db2:	d005      	beq.n	10001dc0 <divmod_s32s32_unsafe+0x14>
10001db4:	e7ff      	b.n	10001db6 <divmod_s32s32_unsafe+0xa>
10001db6:	e7ff      	b.n	10001db8 <divmod_s32s32_unsafe+0xc>
10001db8:	e7ff      	b.n	10001dba <divmod_s32s32_unsafe+0xe>
10001dba:	6f51      	ldr	r1, [r2, #116]	; 0x74
10001dbc:	6f10      	ldr	r0, [r2, #112]	; 0x70
10001dbe:	4770      	bx	lr
10001dc0:	b504      	push	{r2, lr}
10001dc2:	2180      	movs	r1, #128	; 0x80
10001dc4:	0609      	lsls	r1, r1, #24
10001dc6:	17c2      	asrs	r2, r0, #31
10001dc8:	4051      	eors	r1, r2
10001dca:	2800      	cmp	r0, #0
10001dcc:	d000      	beq.n	10001dd0 <divmod_s32s32_unsafe+0x24>
10001dce:	43c8      	mvns	r0, r1
10001dd0:	f000 ff7e 	bl	10002cd0 <____aeabi_idiv0_veneer>
10001dd4:	2100      	movs	r1, #0
10001dd6:	bd04      	pop	{r2, pc}

10001dd8 <divmod_s32s32_savestate>:
10001dd8:	b5f0      	push	{r4, r5, r6, r7, lr}
10001dda:	6e14      	ldr	r4, [r2, #96]	; 0x60
10001ddc:	6e55      	ldr	r5, [r2, #100]	; 0x64
10001dde:	6f57      	ldr	r7, [r2, #116]	; 0x74
10001de0:	6f16      	ldr	r6, [r2, #112]	; 0x70
10001de2:	f7ff ffe3 	bl	10001dac <divmod_s32s32_unsafe>
10001de6:	6614      	str	r4, [r2, #96]	; 0x60
10001de8:	6655      	str	r5, [r2, #100]	; 0x64
10001dea:	6757      	str	r7, [r2, #116]	; 0x74
10001dec:	6716      	str	r6, [r2, #112]	; 0x70
10001dee:	bdf0      	pop	{r4, r5, r6, r7, pc}
10001df0:	d0000000 	.word	0xd0000000

10001df4 <__wrap___aeabi_uidiv>:
10001df4:	4a11      	ldr	r2, [pc, #68]	; (10001e3c <divmod_u32u32_savestate+0x18>)
10001df6:	6f93      	ldr	r3, [r2, #120]	; 0x78
10001df8:	089b      	lsrs	r3, r3, #2
10001dfa:	d213      	bcs.n	10001e24 <divmod_u32u32_savestate>

10001dfc <divmod_u32u32_unsafe>:
10001dfc:	6610      	str	r0, [r2, #96]	; 0x60
10001dfe:	6651      	str	r1, [r2, #100]	; 0x64
10001e00:	2900      	cmp	r1, #0
10001e02:	d005      	beq.n	10001e10 <divmod_u32u32_unsafe+0x14>
10001e04:	e7ff      	b.n	10001e06 <divmod_u32u32_unsafe+0xa>
10001e06:	e7ff      	b.n	10001e08 <divmod_u32u32_unsafe+0xc>
10001e08:	e7ff      	b.n	10001e0a <divmod_u32u32_unsafe+0xe>
10001e0a:	6f51      	ldr	r1, [r2, #116]	; 0x74
10001e0c:	6f10      	ldr	r0, [r2, #112]	; 0x70
10001e0e:	4770      	bx	lr
10001e10:	b504      	push	{r2, lr}
10001e12:	2800      	cmp	r0, #0
10001e14:	d001      	beq.n	10001e1a <divmod_u32u32_unsafe+0x1e>
10001e16:	2000      	movs	r0, #0
10001e18:	43c0      	mvns	r0, r0
10001e1a:	f000 ff59 	bl	10002cd0 <____aeabi_idiv0_veneer>
10001e1e:	2100      	movs	r1, #0
10001e20:	bd04      	pop	{r2, pc}
10001e22:	46c0      	nop			; (mov r8, r8)

10001e24 <divmod_u32u32_savestate>:
10001e24:	b5f0      	push	{r4, r5, r6, r7, lr}
10001e26:	6e14      	ldr	r4, [r2, #96]	; 0x60
10001e28:	6e55      	ldr	r5, [r2, #100]	; 0x64
10001e2a:	6f57      	ldr	r7, [r2, #116]	; 0x74
10001e2c:	6f16      	ldr	r6, [r2, #112]	; 0x70
10001e2e:	f7ff ffe5 	bl	10001dfc <divmod_u32u32_unsafe>
10001e32:	6614      	str	r4, [r2, #96]	; 0x60
10001e34:	6655      	str	r5, [r2, #100]	; 0x64
10001e36:	6757      	str	r7, [r2, #116]	; 0x74
10001e38:	6716      	str	r6, [r2, #112]	; 0x70
10001e3a:	bdf0      	pop	{r4, r5, r6, r7, pc}
10001e3c:	d0000000 	.word	0xd0000000

10001e40 <__wrap___aeabi_drsub>:
10001e40:	4048      	eors	r0, r1
10001e42:	4041      	eors	r1, r0
10001e44:	4048      	eors	r0, r1

10001e46 <__wrap___aeabi_dsub>:
10001e46:	b418      	push	{r3, r4}
10001e48:	4b1b      	ldr	r3, [pc, #108]	; (10001eb8 <__wrap___aeabi_dmul+0x12>)
10001e4a:	685b      	ldr	r3, [r3, #4]
10001e4c:	46fc      	mov	ip, pc
10001e4e:	9301      	str	r3, [sp, #4]
10001e50:	bd08      	pop	{r3, pc}
10001e52:	df04      	.short	0xdf04
10001e54:	1000201f 	.word	0x1000201f

10001e58 <__wrap___aeabi_dadd>:
10001e58:	b418      	push	{r3, r4}
10001e5a:	4b17      	ldr	r3, [pc, #92]	; (10001eb8 <__wrap___aeabi_dmul+0x12>)
10001e5c:	681b      	ldr	r3, [r3, #0]
10001e5e:	46fc      	mov	ip, pc
10001e60:	9301      	str	r3, [sp, #4]
10001e62:	bd08      	pop	{r3, pc}
10001e64:	2029df00 	.word	0x2029df00
10001e68:	1000      	.short	0x1000

10001e6a <__wrap___aeabi_ddiv>:
10001e6a:	4694      	mov	ip, r2
10001e6c:	4a13      	ldr	r2, [pc, #76]	; (10001ebc <__wrap___aeabi_dmul+0x16>)
10001e6e:	6f92      	ldr	r2, [r2, #120]	; 0x78
10001e70:	0892      	lsrs	r2, r2, #2
10001e72:	d209      	bcs.n	10001e88 <ddiv_save_state>
10001e74:	4662      	mov	r2, ip

10001e76 <ddiv_shim_call>:
10001e76:	b418      	push	{r3, r4}
10001e78:	4b0f      	ldr	r3, [pc, #60]	; (10001eb8 <__wrap___aeabi_dmul+0x12>)
10001e7a:	68db      	ldr	r3, [r3, #12]
10001e7c:	46fc      	mov	ip, pc
10001e7e:	9301      	str	r3, [sp, #4]
10001e80:	bd08      	pop	{r3, pc}
10001e82:	df0c      	.short	0xdf0c
10001e84:	100022e1 	.word	0x100022e1

10001e88 <ddiv_save_state>:
10001e88:	4a0c      	ldr	r2, [pc, #48]	; (10001ebc <__wrap___aeabi_dmul+0x16>)
10001e8a:	b5f0      	push	{r4, r5, r6, r7, lr}
10001e8c:	6e14      	ldr	r4, [r2, #96]	; 0x60
10001e8e:	6e55      	ldr	r5, [r2, #100]	; 0x64
10001e90:	6f57      	ldr	r7, [r2, #116]	; 0x74
10001e92:	6f16      	ldr	r6, [r2, #112]	; 0x70
10001e94:	4662      	mov	r2, ip
10001e96:	f7ff ffee 	bl	10001e76 <ddiv_shim_call>
10001e9a:	4a08      	ldr	r2, [pc, #32]	; (10001ebc <__wrap___aeabi_dmul+0x16>)
10001e9c:	6614      	str	r4, [r2, #96]	; 0x60
10001e9e:	6655      	str	r5, [r2, #100]	; 0x64
10001ea0:	6757      	str	r7, [r2, #116]	; 0x74
10001ea2:	6716      	str	r6, [r2, #112]	; 0x70
10001ea4:	bdf0      	pop	{r4, r5, r6, r7, pc}

10001ea6 <__wrap___aeabi_dmul>:
10001ea6:	b418      	push	{r3, r4}
10001ea8:	4b03      	ldr	r3, [pc, #12]	; (10001eb8 <__wrap___aeabi_dmul+0x12>)
10001eaa:	689b      	ldr	r3, [r3, #8]
10001eac:	46fc      	mov	ip, pc
10001eae:	9301      	str	r3, [sp, #4]
10001eb0:	bd08      	pop	{r3, pc}
10001eb2:	df08      	.short	0xdf08
10001eb4:	10002185 	.word	0x10002185
10001eb8:	200005f8 	.word	0x200005f8
10001ebc:	d0000000 	.word	0xd0000000

10001ec0 <__wrap___aeabi_ui2d>:
10001ec0:	2100      	movs	r1, #0
10001ec2:	2800      	cmp	r0, #0
10001ec4:	d105      	bne.n	10001ed2 <__wrap___aeabi_i2d+0xa>
10001ec6:	4770      	bx	lr

10001ec8 <__wrap___aeabi_i2d>:
10001ec8:	17c1      	asrs	r1, r0, #31
10001eca:	4048      	eors	r0, r1
10001ecc:	1a40      	subs	r0, r0, r1
10001ece:	d0fa      	beq.n	10001ec6 <__wrap___aeabi_ui2d+0x6>
10001ed0:	07c9      	lsls	r1, r1, #31
10001ed2:	b513      	push	{r0, r1, r4, lr}
10001ed4:	4b06      	ldr	r3, [pc, #24]	; (10001ef0 <__wrap___aeabi_i2d+0x28>)
10001ed6:	681b      	ldr	r3, [r3, #0]
10001ed8:	4798      	blx	r3
10001eda:	bc0c      	pop	{r2, r3}
10001edc:	1c44      	adds	r4, r0, #1
10001ede:	40a2      	lsls	r2, r4
10001ee0:	0510      	lsls	r0, r2, #20
10001ee2:	0b12      	lsrs	r2, r2, #12
10001ee4:	4903      	ldr	r1, [pc, #12]	; (10001ef4 <__wrap___aeabi_i2d+0x2c>)
10001ee6:	1b09      	subs	r1, r1, r4
10001ee8:	0509      	lsls	r1, r1, #20
10001eea:	4319      	orrs	r1, r3
10001eec:	4311      	orrs	r1, r2
10001eee:	bd10      	pop	{r4, pc}
10001ef0:	200008b4 	.word	0x200008b4
10001ef4:	0000041f 	.word	0x0000041f

10001ef8 <__wrap___aeabi_d2iz>:
10001ef8:	b510      	push	{r4, lr}
10001efa:	004c      	lsls	r4, r1, #1
10001efc:	0d62      	lsrs	r2, r4, #21
10001efe:	2380      	movs	r3, #128	; 0x80
10001f00:	18d2      	adds	r2, r2, r3
10001f02:	00db      	lsls	r3, r3, #3
10001f04:	1ad2      	subs	r2, r2, r3
10001f06:	055b      	lsls	r3, r3, #21
10001f08:	2a7e      	cmp	r2, #126	; 0x7e
10001f0a:	dd10      	ble.n	10001f2e <__wrap___aeabi_d2iz+0x36>
10001f0c:	3a9e      	subs	r2, #158	; 0x9e
10001f0e:	da13      	bge.n	10001f38 <__wrap___aeabi_d2iz+0x40>
10001f10:	17cc      	asrs	r4, r1, #31
10001f12:	0309      	lsls	r1, r1, #12
10001f14:	0849      	lsrs	r1, r1, #1
10001f16:	4319      	orrs	r1, r3
10001f18:	4252      	negs	r2, r2
10001f1a:	40d1      	lsrs	r1, r2
10001f1c:	0064      	lsls	r4, r4, #1
10001f1e:	3401      	adds	r4, #1
10001f20:	3215      	adds	r2, #21
10001f22:	2a20      	cmp	r2, #32
10001f24:	da05      	bge.n	10001f32 <__wrap___aeabi_d2iz+0x3a>
10001f26:	40d0      	lsrs	r0, r2
10001f28:	4308      	orrs	r0, r1
10001f2a:	4360      	muls	r0, r4
10001f2c:	bd10      	pop	{r4, pc}
10001f2e:	2000      	movs	r0, #0
10001f30:	bd10      	pop	{r4, pc}
10001f32:	4608      	mov	r0, r1
10001f34:	4360      	muls	r0, r4
10001f36:	bd10      	pop	{r4, pc}
10001f38:	0fc8      	lsrs	r0, r1, #31
10001f3a:	18c0      	adds	r0, r0, r3
10001f3c:	3801      	subs	r0, #1
10001f3e:	bd10      	pop	{r4, pc}

10001f40 <__wrap___aeabi_d2f>:
10001f40:	b418      	push	{r3, r4}
10001f42:	4b04      	ldr	r3, [pc, #16]	; (10001f54 <__wrap___aeabi_d2f+0x14>)
10001f44:	6fdb      	ldr	r3, [r3, #124]	; 0x7c
10001f46:	46fc      	mov	ip, pc
10001f48:	9301      	str	r3, [sp, #4]
10001f4a:	bd08      	pop	{r3, pc}
10001f4c:	2491df7c 	.word	0x2491df7c
10001f50:	00001000 	.word	0x00001000
10001f54:	200005f8 	.word	0x200005f8

10001f58 <__aeabi_double_init>:
10001f58:	2313      	movs	r3, #19
10001f5a:	b570      	push	{r4, r5, r6, lr}
10001f5c:	781d      	ldrb	r5, [r3, #0]
10001f5e:	2d01      	cmp	r5, #1
10001f60:	d015      	beq.n	10001f8e <__aeabi_double_init+0x36>
10001f62:	dd10      	ble.n	10001f86 <__aeabi_double_init+0x2e>
10001f64:	481c      	ldr	r0, [pc, #112]	; (10001fd8 <__aeabi_double_init+0x80>)
10001f66:	f7ff fef3 	bl	10001d50 <rom_data_lookup>
10001f6a:	4c1c      	ldr	r4, [pc, #112]	; (10001fdc <__aeabi_double_init+0x84>)
10001f6c:	0001      	movs	r1, r0
10001f6e:	2280      	movs	r2, #128	; 0x80
10001f70:	0020      	movs	r0, r4
10001f72:	f000 fc43 	bl	100027fc <__wrap___aeabi_memcpy>
10001f76:	2d02      	cmp	r5, #2
10001f78:	d006      	beq.n	10001f88 <__aeabi_double_init+0x30>
10001f7a:	4819      	ldr	r0, [pc, #100]	; (10001fe0 <__aeabi_double_init+0x88>)
10001f7c:	f7ff fee0 	bl	10001d40 <rom_func_lookup>
10001f80:	4b18      	ldr	r3, [pc, #96]	; (10001fe4 <__aeabi_double_init+0x8c>)
10001f82:	6018      	str	r0, [r3, #0]
10001f84:	bd70      	pop	{r4, r5, r6, pc}
10001f86:	4c15      	ldr	r4, [pc, #84]	; (10001fdc <__aeabi_double_init+0x84>)
10001f88:	4b17      	ldr	r3, [pc, #92]	; (10001fe8 <__aeabi_double_init+0x90>)
10001f8a:	64a3      	str	r3, [r4, #72]	; 0x48
10001f8c:	e7f5      	b.n	10001f7a <__aeabi_double_init+0x22>
10001f8e:	4b16      	ldr	r3, [pc, #88]	; (10001fe8 <__aeabi_double_init+0x90>)
10001f90:	4c12      	ldr	r4, [pc, #72]	; (10001fdc <__aeabi_double_init+0x84>)
10001f92:	6023      	str	r3, [r4, #0]
10001f94:	6063      	str	r3, [r4, #4]
10001f96:	60a3      	str	r3, [r4, #8]
10001f98:	60e3      	str	r3, [r4, #12]
10001f9a:	6123      	str	r3, [r4, #16]
10001f9c:	6163      	str	r3, [r4, #20]
10001f9e:	61a3      	str	r3, [r4, #24]
10001fa0:	61e3      	str	r3, [r4, #28]
10001fa2:	6223      	str	r3, [r4, #32]
10001fa4:	6263      	str	r3, [r4, #36]	; 0x24
10001fa6:	62a3      	str	r3, [r4, #40]	; 0x28
10001fa8:	62e3      	str	r3, [r4, #44]	; 0x2c
10001faa:	6323      	str	r3, [r4, #48]	; 0x30
10001fac:	6363      	str	r3, [r4, #52]	; 0x34
10001fae:	63a3      	str	r3, [r4, #56]	; 0x38
10001fb0:	63e3      	str	r3, [r4, #60]	; 0x3c
10001fb2:	6423      	str	r3, [r4, #64]	; 0x40
10001fb4:	6463      	str	r3, [r4, #68]	; 0x44
10001fb6:	64a3      	str	r3, [r4, #72]	; 0x48
10001fb8:	64e3      	str	r3, [r4, #76]	; 0x4c
10001fba:	6523      	str	r3, [r4, #80]	; 0x50
10001fbc:	6563      	str	r3, [r4, #84]	; 0x54
10001fbe:	65a3      	str	r3, [r4, #88]	; 0x58
10001fc0:	65e3      	str	r3, [r4, #92]	; 0x5c
10001fc2:	6623      	str	r3, [r4, #96]	; 0x60
10001fc4:	6663      	str	r3, [r4, #100]	; 0x64
10001fc6:	66a3      	str	r3, [r4, #104]	; 0x68
10001fc8:	66e3      	str	r3, [r4, #108]	; 0x6c
10001fca:	6723      	str	r3, [r4, #112]	; 0x70
10001fcc:	6763      	str	r3, [r4, #116]	; 0x74
10001fce:	67a3      	str	r3, [r4, #120]	; 0x78
10001fd0:	67e3      	str	r3, [r4, #124]	; 0x7c
10001fd2:	64a3      	str	r3, [r4, #72]	; 0x48
10001fd4:	e7d1      	b.n	10001f7a <__aeabi_double_init+0x22>
10001fd6:	46c0      	nop			; (mov r8, r8)
10001fd8:	00004453 	.word	0x00004453
10001fdc:	200005f8 	.word	0x200005f8
10001fe0:	0000334c 	.word	0x0000334c
10001fe4:	200008b4 	.word	0x200008b4
10001fe8:	10001fed 	.word	0x10001fed

10001fec <double_table_shim_on_use_helper>:
10001fec:	b507      	push	{r0, r1, r2, lr}
10001fee:	4660      	mov	r0, ip
10001ff0:	8801      	ldrh	r1, [r0, #0]
10001ff2:	0a0a      	lsrs	r2, r1, #8
10001ff4:	3002      	adds	r0, #2
10001ff6:	2adf      	cmp	r2, #223	; 0xdf
10001ff8:	d1fa      	bne.n	10001ff0 <double_table_shim_on_use_helper+0x4>
10001ffa:	b2c9      	uxtb	r1, r1
10001ffc:	0882      	lsrs	r2, r0, #2
10001ffe:	d304      	bcc.n	1000200a <double_table_shim_on_use_helper+0x1e>
10002000:	8802      	ldrh	r2, [r0, #0]
10002002:	8840      	ldrh	r0, [r0, #2]
10002004:	0400      	lsls	r0, r0, #16
10002006:	4310      	orrs	r0, r2
10002008:	e000      	b.n	1000200c <double_table_shim_on_use_helper+0x20>
1000200a:	6800      	ldr	r0, [r0, #0]
1000200c:	4a01      	ldr	r2, [pc, #4]	; (10002014 <double_table_shim_on_use_helper+0x28>)
1000200e:	5050      	str	r0, [r2, r1]
10002010:	9003      	str	r0, [sp, #12]
10002012:	bd07      	pop	{r0, r1, r2, pc}
10002014:	200005f8 	.word	0x200005f8

10002018 <drsub_shim>:
10002018:	b40f      	push	{r0, r1, r2, r3}
1000201a:	bc03      	pop	{r0, r1}
1000201c:	bc0c      	pop	{r2, r3}

1000201e <dsub_shim>:
1000201e:	b5f0      	push	{r4, r5, r6, r7, lr}
10002020:	2401      	movs	r4, #1
10002022:	07e4      	lsls	r4, r4, #31
10002024:	4063      	eors	r3, r4
10002026:	e000      	b.n	1000202a <da_entry>

10002028 <dadd_shim>:
10002028:	b5f0      	push	{r4, r5, r6, r7, lr}

1000202a <da_entry>:
1000202a:	0d0c      	lsrs	r4, r1, #20
1000202c:	0fcf      	lsrs	r7, r1, #31
1000202e:	1e66      	subs	r6, r4, #1
10002030:	0536      	lsls	r6, r6, #20
10002032:	1b89      	subs	r1, r1, r6
10002034:	0564      	lsls	r4, r4, #21
10002036:	d303      	bcc.n	10002040 <l8_1>
10002038:	43c9      	mvns	r1, r1
1000203a:	4240      	negs	r0, r0
1000203c:	d300      	bcc.n	10002040 <l8_1>
1000203e:	3101      	adds	r1, #1

10002040 <l8_1>:
10002040:	0d64      	lsrs	r4, r4, #21
10002042:	d003      	beq.n	1000204c <l8_2>
10002044:	1c66      	adds	r6, r4, #1
10002046:	0af6      	lsrs	r6, r6, #11
10002048:	d007      	beq.n	1000205a <l8_3>
1000204a:	1be4      	subs	r4, r4, r7

1000204c <l8_2>:
1000204c:	2000      	movs	r0, #0
1000204e:	007f      	lsls	r7, r7, #1
10002050:	1c79      	adds	r1, r7, #1
10002052:	0789      	lsls	r1, r1, #30
10002054:	1289      	asrs	r1, r1, #10
10002056:	3c80      	subs	r4, #128	; 0x80
10002058:	0324      	lsls	r4, r4, #12

1000205a <l8_3>:
1000205a:	0d1d      	lsrs	r5, r3, #20
1000205c:	0fdf      	lsrs	r7, r3, #31
1000205e:	1e6e      	subs	r6, r5, #1
10002060:	0536      	lsls	r6, r6, #20
10002062:	1b9b      	subs	r3, r3, r6
10002064:	056d      	lsls	r5, r5, #21
10002066:	d303      	bcc.n	10002070 <l9_1>
10002068:	43db      	mvns	r3, r3
1000206a:	4252      	negs	r2, r2
1000206c:	d300      	bcc.n	10002070 <l9_1>
1000206e:	3301      	adds	r3, #1

10002070 <l9_1>:
10002070:	0d6d      	lsrs	r5, r5, #21
10002072:	d003      	beq.n	1000207c <l9_2>
10002074:	1c6e      	adds	r6, r5, #1
10002076:	0af6      	lsrs	r6, r6, #11
10002078:	d007      	beq.n	1000208a <l9_3>
1000207a:	1bed      	subs	r5, r5, r7

1000207c <l9_2>:
1000207c:	2200      	movs	r2, #0
1000207e:	007f      	lsls	r7, r7, #1
10002080:	1c7b      	adds	r3, r7, #1
10002082:	079b      	lsls	r3, r3, #30
10002084:	129b      	asrs	r3, r3, #10
10002086:	3d80      	subs	r5, #128	; 0x80
10002088:	032d      	lsls	r5, r5, #12

1000208a <l9_3>:
1000208a:	1b2f      	subs	r7, r5, r4
1000208c:	1b66      	subs	r6, r4, r5
1000208e:	d458      	bmi.n	10002142 <da_ygtx>
10002090:	46a4      	mov	ip, r4
10002092:	2e20      	cmp	r6, #32
10002094:	da46      	bge.n	10002124 <da_xrgty>
10002096:	3720      	adds	r7, #32
10002098:	0014      	movs	r4, r2
1000209a:	40bc      	lsls	r4, r7

1000209c <da_xgty0>:
1000209c:	001d      	movs	r5, r3
1000209e:	40bd      	lsls	r5, r7
100020a0:	40f2      	lsrs	r2, r6
100020a2:	4133      	asrs	r3, r6
100020a4:	432a      	orrs	r2, r5

100020a6 <da_add>:
100020a6:	1880      	adds	r0, r0, r2
100020a8:	4159      	adcs	r1, r3

100020aa <da_pack>:
100020aa:	0fcb      	lsrs	r3, r1, #31
100020ac:	d005      	beq.n	100020ba <da_pack+0x10>
100020ae:	43c9      	mvns	r1, r1
100020b0:	43c0      	mvns	r0, r0
100020b2:	2200      	movs	r2, #0
100020b4:	4264      	negs	r4, r4
100020b6:	4150      	adcs	r0, r2
100020b8:	4151      	adcs	r1, r2
100020ba:	4662      	mov	r2, ip
100020bc:	0d4d      	lsrs	r5, r1, #21
100020be:	d128      	bne.n	10002112 <da_0>
100020c0:	0d0d      	lsrs	r5, r1, #20
100020c2:	d107      	bne.n	100020d4 <da_1>
100020c4:	2800      	cmp	r0, #0
100020c6:	d01f      	beq.n	10002108 <da_5>

100020c8 <da_2>:
100020c8:	1924      	adds	r4, r4, r4
100020ca:	4140      	adcs	r0, r0
100020cc:	4149      	adcs	r1, r1
100020ce:	3a01      	subs	r2, #1
100020d0:	0d0d      	lsrs	r5, r1, #20
100020d2:	d0f9      	beq.n	100020c8 <da_2>

100020d4 <da_1>:
100020d4:	0064      	lsls	r4, r4, #1
100020d6:	d306      	bcc.n	100020e6 <da_3>

100020d8 <da_4>:
100020d8:	3001      	adds	r0, #1
100020da:	d300      	bcc.n	100020de <da_4+0x6>
100020dc:	3101      	adds	r1, #1
100020de:	2c00      	cmp	r4, #0
100020e0:	d101      	bne.n	100020e6 <da_3>
100020e2:	0840      	lsrs	r0, r0, #1
100020e4:	0040      	lsls	r0, r0, #1

100020e6 <da_3>:
100020e6:	3a01      	subs	r2, #1
100020e8:	d40b      	bmi.n	10002102 <da_6>
100020ea:	1c94      	adds	r4, r2, #2
100020ec:	0ae4      	lsrs	r4, r4, #11
100020ee:	d104      	bne.n	100020fa <da_7>
100020f0:	0512      	lsls	r2, r2, #20
100020f2:	4411      	add	r1, r2
100020f4:	07db      	lsls	r3, r3, #31
100020f6:	4419      	add	r1, r3
100020f8:	bdf0      	pop	{r4, r5, r6, r7, pc}

100020fa <da_7>:
100020fa:	07d9      	lsls	r1, r3, #31
100020fc:	4b20      	ldr	r3, [pc, #128]	; (10002180 <da_xmgty+0x4>)
100020fe:	4319      	orrs	r1, r3
10002100:	e000      	b.n	10002104 <da_6+0x2>

10002102 <da_6>:
10002102:	07d9      	lsls	r1, r3, #31
10002104:	2000      	movs	r0, #0
10002106:	bdf0      	pop	{r4, r5, r6, r7, pc}

10002108 <da_5>:
10002108:	2900      	cmp	r1, #0
1000210a:	d1dd      	bne.n	100020c8 <da_2>
1000210c:	2c00      	cmp	r4, #0
1000210e:	d1db      	bne.n	100020c8 <da_2>
10002110:	bdf0      	pop	{r4, r5, r6, r7, pc}

10002112 <da_0>:
10002112:	3201      	adds	r2, #1
10002114:	07c6      	lsls	r6, r0, #31
10002116:	0840      	lsrs	r0, r0, #1
10002118:	07cd      	lsls	r5, r1, #31
1000211a:	4328      	orrs	r0, r5
1000211c:	0849      	lsrs	r1, r1, #1
1000211e:	2e00      	cmp	r6, #0
10002120:	d0e1      	beq.n	100020e6 <da_3>
10002122:	e7d9      	b.n	100020d8 <da_4>

10002124 <da_xrgty>:
10002124:	2e3c      	cmp	r6, #60	; 0x3c
10002126:	da29      	bge.n	1000217c <da_xmgty>
10002128:	3e20      	subs	r6, #32
1000212a:	3740      	adds	r7, #64	; 0x40
1000212c:	0014      	movs	r4, r2
1000212e:	40bc      	lsls	r4, r7
10002130:	d000      	beq.n	10002134 <da_xrgty+0x10>
10002132:	2401      	movs	r4, #1
10002134:	40f2      	lsrs	r2, r6
10002136:	4314      	orrs	r4, r2
10002138:	001a      	movs	r2, r3
1000213a:	40bb      	lsls	r3, r7
1000213c:	431c      	orrs	r4, r3
1000213e:	17d3      	asrs	r3, r2, #31
10002140:	e7ac      	b.n	1000209c <da_xgty0>

10002142 <da_ygtx>:
10002142:	46ac      	mov	ip, r5
10002144:	2f20      	cmp	r7, #32
10002146:	da08      	bge.n	1000215a <da_yrgtx>
10002148:	3620      	adds	r6, #32
1000214a:	0004      	movs	r4, r0
1000214c:	40b4      	lsls	r4, r6

1000214e <da_ygtx0>:
1000214e:	000d      	movs	r5, r1
10002150:	40b5      	lsls	r5, r6
10002152:	40f8      	lsrs	r0, r7
10002154:	4139      	asrs	r1, r7
10002156:	4328      	orrs	r0, r5
10002158:	e7a5      	b.n	100020a6 <da_add>

1000215a <da_yrgtx>:
1000215a:	2f3c      	cmp	r7, #60	; 0x3c
1000215c:	da0c      	bge.n	10002178 <da_ymgtx>
1000215e:	3f20      	subs	r7, #32
10002160:	3640      	adds	r6, #64	; 0x40
10002162:	0004      	movs	r4, r0
10002164:	40b4      	lsls	r4, r6
10002166:	d000      	beq.n	1000216a <da_yrgtx+0x10>
10002168:	2401      	movs	r4, #1
1000216a:	40f8      	lsrs	r0, r7
1000216c:	4304      	orrs	r4, r0
1000216e:	0008      	movs	r0, r1
10002170:	40b1      	lsls	r1, r6
10002172:	430c      	orrs	r4, r1
10002174:	17c1      	asrs	r1, r0, #31
10002176:	e7ea      	b.n	1000214e <da_ygtx0>

10002178 <da_ymgtx>:
10002178:	0010      	movs	r0, r2
1000217a:	0019      	movs	r1, r3

1000217c <da_xmgty>:
1000217c:	2400      	movs	r4, #0
1000217e:	e794      	b.n	100020aa <da_pack>
10002180:	7ff00000 	.word	0x7ff00000

10002184 <dmul_shim>:
10002184:	b5f0      	push	{r4, r5, r6, r7, lr}
10002186:	0d0c      	lsrs	r4, r1, #20
10002188:	1e66      	subs	r6, r4, #1
1000218a:	0536      	lsls	r6, r6, #20
1000218c:	1b89      	subs	r1, r1, r6
1000218e:	0ae6      	lsrs	r6, r4, #11
10002190:	0564      	lsls	r4, r4, #21
10002192:	0d64      	lsrs	r4, r4, #21
10002194:	d002      	beq.n	1000219c <l12_1>
10002196:	1c65      	adds	r5, r4, #1
10002198:	0aed      	lsrs	r5, r5, #11
1000219a:	d004      	beq.n	100021a6 <l12_2>

1000219c <l12_1>:
1000219c:	2000      	movs	r0, #0
1000219e:	2101      	movs	r1, #1
100021a0:	0509      	lsls	r1, r1, #20
100021a2:	3c80      	subs	r4, #128	; 0x80
100021a4:	0324      	lsls	r4, r4, #12

100021a6 <l12_2>:
100021a6:	46a4      	mov	ip, r4
100021a8:	0d1c      	lsrs	r4, r3, #20
100021aa:	1e67      	subs	r7, r4, #1
100021ac:	053f      	lsls	r7, r7, #20
100021ae:	1bdb      	subs	r3, r3, r7
100021b0:	0ae7      	lsrs	r7, r4, #11
100021b2:	0564      	lsls	r4, r4, #21
100021b4:	0d64      	lsrs	r4, r4, #21
100021b6:	d002      	beq.n	100021be <l13_1>
100021b8:	1c65      	adds	r5, r4, #1
100021ba:	0aed      	lsrs	r5, r5, #11
100021bc:	d004      	beq.n	100021c8 <l13_2>

100021be <l13_1>:
100021be:	2200      	movs	r2, #0
100021c0:	2301      	movs	r3, #1
100021c2:	051b      	lsls	r3, r3, #20
100021c4:	3c80      	subs	r4, #128	; 0x80
100021c6:	0324      	lsls	r4, r4, #12

100021c8 <l13_2>:
100021c8:	4077      	eors	r7, r6
100021ca:	4464      	add	r4, ip
100021cc:	b497      	push	{r0, r1, r2, r4, r7}
100021ce:	b284      	uxth	r4, r0
100021d0:	b296      	uxth	r6, r2
100021d2:	4374      	muls	r4, r6
100021d4:	0c07      	lsrs	r7, r0, #16
100021d6:	437e      	muls	r6, r7
100021d8:	0c15      	lsrs	r5, r2, #16
100021da:	436f      	muls	r7, r5
100021dc:	b280      	uxth	r0, r0
100021de:	4368      	muls	r0, r5
100021e0:	1836      	adds	r6, r6, r0
100021e2:	d302      	bcc.n	100021ea <l14_1>
100021e4:	2001      	movs	r0, #1
100021e6:	0400      	lsls	r0, r0, #16
100021e8:	183f      	adds	r7, r7, r0

100021ea <l14_1>:
100021ea:	0430      	lsls	r0, r6, #16
100021ec:	0c35      	lsrs	r5, r6, #16
100021ee:	1900      	adds	r0, r0, r4
100021f0:	417d      	adcs	r5, r7
100021f2:	4684      	mov	ip, r0
100021f4:	b288      	uxth	r0, r1
100021f6:	b29a      	uxth	r2, r3
100021f8:	4350      	muls	r0, r2
100021fa:	0c0c      	lsrs	r4, r1, #16
100021fc:	4362      	muls	r2, r4
100021fe:	0c1f      	lsrs	r7, r3, #16
10002200:	437c      	muls	r4, r7
10002202:	b28e      	uxth	r6, r1
10002204:	437e      	muls	r6, r7
10002206:	1992      	adds	r2, r2, r6
10002208:	d302      	bcc.n	10002210 <l15_1>
1000220a:	2601      	movs	r6, #1
1000220c:	0436      	lsls	r6, r6, #16
1000220e:	19a4      	adds	r4, r4, r6

10002210 <l15_1>:
10002210:	0416      	lsls	r6, r2, #16
10002212:	0c17      	lsrs	r7, r2, #16
10002214:	1836      	adds	r6, r6, r0
10002216:	4167      	adcs	r7, r4
10002218:	bc01      	pop	{r0}
1000221a:	b281      	uxth	r1, r0
1000221c:	b29a      	uxth	r2, r3
1000221e:	4351      	muls	r1, r2
10002220:	0c04      	lsrs	r4, r0, #16
10002222:	4362      	muls	r2, r4
10002224:	0c1b      	lsrs	r3, r3, #16
10002226:	435c      	muls	r4, r3
10002228:	b280      	uxth	r0, r0
1000222a:	4358      	muls	r0, r3
1000222c:	1812      	adds	r2, r2, r0
1000222e:	d302      	bcc.n	10002236 <l16_1>
10002230:	2001      	movs	r0, #1
10002232:	0400      	lsls	r0, r0, #16
10002234:	1824      	adds	r4, r4, r0

10002236 <l16_1>:
10002236:	0410      	lsls	r0, r2, #16
10002238:	0c13      	lsrs	r3, r2, #16
1000223a:	1840      	adds	r0, r0, r1
1000223c:	4163      	adcs	r3, r4
1000223e:	182d      	adds	r5, r5, r0
10002240:	415e      	adcs	r6, r3
10002242:	2000      	movs	r0, #0
10002244:	4147      	adcs	r7, r0
10002246:	bc06      	pop	{r1, r2}
10002248:	b288      	uxth	r0, r1
1000224a:	b293      	uxth	r3, r2
1000224c:	4358      	muls	r0, r3
1000224e:	0c0c      	lsrs	r4, r1, #16
10002250:	4363      	muls	r3, r4
10002252:	0c12      	lsrs	r2, r2, #16
10002254:	4354      	muls	r4, r2
10002256:	b289      	uxth	r1, r1
10002258:	4351      	muls	r1, r2
1000225a:	185b      	adds	r3, r3, r1
1000225c:	d302      	bcc.n	10002264 <l17_1>
1000225e:	2101      	movs	r1, #1
10002260:	0409      	lsls	r1, r1, #16
10002262:	1864      	adds	r4, r4, r1

10002264 <l17_1>:
10002264:	0419      	lsls	r1, r3, #16
10002266:	0c1a      	lsrs	r2, r3, #16
10002268:	1809      	adds	r1, r1, r0
1000226a:	4162      	adcs	r2, r4
1000226c:	186d      	adds	r5, r5, r1
1000226e:	4156      	adcs	r6, r2
10002270:	2000      	movs	r0, #0
10002272:	4147      	adcs	r7, r0
10002274:	bc18      	pop	{r3, r4}
10002276:	02f9      	lsls	r1, r7, #11
10002278:	0d72      	lsrs	r2, r6, #21
1000227a:	4311      	orrs	r1, r2
1000227c:	02f0      	lsls	r0, r6, #11
1000227e:	0d6a      	lsrs	r2, r5, #21
10002280:	4310      	orrs	r0, r2
10002282:	02ed      	lsls	r5, r5, #11
10002284:	0d0a      	lsrs	r2, r1, #20
10002286:	d103      	bne.n	10002290 <l17_1+0x2c>
10002288:	196d      	adds	r5, r5, r5
1000228a:	4140      	adcs	r0, r0
1000228c:	4149      	adcs	r1, r1
1000228e:	3b01      	subs	r3, #1
10002290:	4e12      	ldr	r6, [pc, #72]	; (100022dc <dm_1+0xa>)
10002292:	1b9b      	subs	r3, r3, r6
10002294:	0076      	lsls	r6, r6, #1
10002296:	42b3      	cmp	r3, r6
10002298:	d20e      	bcs.n	100022b8 <dm_0>
1000229a:	006d      	lsls	r5, r5, #1
1000229c:	d307      	bcc.n	100022ae <l17_1+0x4a>
1000229e:	3001      	adds	r0, #1
100022a0:	2600      	movs	r6, #0
100022a2:	4171      	adcs	r1, r6
100022a4:	4666      	mov	r6, ip
100022a6:	4335      	orrs	r5, r6
100022a8:	d101      	bne.n	100022ae <l17_1+0x4a>
100022aa:	0840      	lsrs	r0, r0, #1
100022ac:	0040      	lsls	r0, r0, #1
100022ae:	051b      	lsls	r3, r3, #20
100022b0:	18c9      	adds	r1, r1, r3

100022b2 <dm_2>:
100022b2:	07e4      	lsls	r4, r4, #31
100022b4:	4421      	add	r1, r4
100022b6:	bdf0      	pop	{r4, r5, r6, r7, pc}

100022b8 <dm_0>:
100022b8:	da0b      	bge.n	100022d2 <dm_1>
100022ba:	3301      	adds	r3, #1
100022bc:	d106      	bne.n	100022cc <dm_0+0x14>
100022be:	3001      	adds	r0, #1
100022c0:	d104      	bne.n	100022cc <dm_0+0x14>
100022c2:	3101      	adds	r1, #1
100022c4:	0d4f      	lsrs	r7, r1, #21
100022c6:	d001      	beq.n	100022cc <dm_0+0x14>
100022c8:	0849      	lsrs	r1, r1, #1
100022ca:	e7f2      	b.n	100022b2 <dm_2>
100022cc:	07e1      	lsls	r1, r4, #31
100022ce:	2000      	movs	r0, #0
100022d0:	bdf0      	pop	{r4, r5, r6, r7, pc}

100022d2 <dm_1>:
100022d2:	3601      	adds	r6, #1
100022d4:	0531      	lsls	r1, r6, #20
100022d6:	2000      	movs	r0, #0
100022d8:	e7eb      	b.n	100022b2 <dm_2>
100022da:	0000      	.short	0x0000
100022dc:	000003ff 	.word	0x000003ff

100022e0 <ddiv_shim>:
100022e0:	b5f0      	push	{r4, r5, r6, r7, lr}

100022e2 <ddiv0>:
100022e2:	0d1c      	lsrs	r4, r3, #20
100022e4:	1e67      	subs	r7, r4, #1
100022e6:	053f      	lsls	r7, r7, #20
100022e8:	1bdb      	subs	r3, r3, r7
100022ea:	0ae7      	lsrs	r7, r4, #11
100022ec:	0564      	lsls	r4, r4, #21
100022ee:	0d64      	lsrs	r4, r4, #21
100022f0:	d002      	beq.n	100022f8 <l20_1>
100022f2:	1c66      	adds	r6, r4, #1
100022f4:	0af6      	lsrs	r6, r6, #11
100022f6:	d004      	beq.n	10002302 <l20_2>

100022f8 <l20_1>:
100022f8:	2200      	movs	r2, #0
100022fa:	2301      	movs	r3, #1
100022fc:	051b      	lsls	r3, r3, #20
100022fe:	3c80      	subs	r4, #128	; 0x80
10002300:	0324      	lsls	r4, r4, #12

10002302 <l20_2>:
10002302:	25d0      	movs	r5, #208	; 0xd0
10002304:	062d      	lsls	r5, r5, #24
10002306:	2600      	movs	r6, #0
10002308:	43f6      	mvns	r6, r6
1000230a:	662e      	str	r6, [r5, #96]	; 0x60
1000230c:	091e      	lsrs	r6, r3, #4
1000230e:	666e      	str	r6, [r5, #100]	; 0x64
10002310:	0fce      	lsrs	r6, r1, #31
10002312:	19f6      	adds	r6, r6, r7
10002314:	46b4      	mov	ip, r6
10002316:	0049      	lsls	r1, r1, #1
10002318:	0d4f      	lsrs	r7, r1, #21
1000231a:	d002      	beq.n	10002322 <l20_2+0x20>
1000231c:	1c7e      	adds	r6, r7, #1
1000231e:	0af6      	lsrs	r6, r6, #11
10002320:	d003      	beq.n	1000232a <l20_2+0x28>
10002322:	2000      	movs	r0, #0
10002324:	2100      	movs	r1, #0
10002326:	3f40      	subs	r7, #64	; 0x40
10002328:	033f      	lsls	r7, r7, #12
1000232a:	1b3e      	subs	r6, r7, r4
1000232c:	00b6      	lsls	r6, r6, #2
1000232e:	44b4      	add	ip, r6
10002330:	3f01      	subs	r7, #1
10002332:	057f      	lsls	r7, r7, #21
10002334:	1bc9      	subs	r1, r1, r7
10002336:	0849      	lsrs	r1, r1, #1
10002338:	6f2e      	ldr	r6, [r5, #112]	; 0x70
1000233a:	3601      	adds	r6, #1
1000233c:	0876      	lsrs	r6, r6, #1
1000233e:	029c      	lsls	r4, r3, #10
10002340:	0d95      	lsrs	r5, r2, #22
10002342:	4325      	orrs	r5, r4
10002344:	4375      	muls	r5, r6
10002346:	13ed      	asrs	r5, r5, #15
10002348:	4375      	muls	r5, r6
1000234a:	13ad      	asrs	r5, r5, #14
1000234c:	3501      	adds	r5, #1
1000234e:	106d      	asrs	r5, r5, #1
10002350:	03f6      	lsls	r6, r6, #15
10002352:	1b76      	subs	r6, r6, r5
10002354:	b40c      	push	{r2, r3}
10002356:	02cc      	lsls	r4, r1, #11
10002358:	0d45      	lsrs	r5, r0, #21
1000235a:	432c      	orrs	r4, r5
1000235c:	b2a2      	uxth	r2, r4
1000235e:	b2b3      	uxth	r3, r6
10002360:	435a      	muls	r2, r3
10002362:	0c27      	lsrs	r7, r4, #16
10002364:	437b      	muls	r3, r7
10002366:	0c35      	lsrs	r5, r6, #16
10002368:	436f      	muls	r7, r5
1000236a:	b2a4      	uxth	r4, r4
1000236c:	436c      	muls	r4, r5
1000236e:	191b      	adds	r3, r3, r4
10002370:	d302      	bcc.n	10002378 <l21_1>
10002372:	2401      	movs	r4, #1
10002374:	0424      	lsls	r4, r4, #16
10002376:	193f      	adds	r7, r7, r4

10002378 <l21_1>:
10002378:	041c      	lsls	r4, r3, #16
1000237a:	0c1d      	lsrs	r5, r3, #16
1000237c:	18a4      	adds	r4, r4, r2
1000237e:	417d      	adcs	r5, r7
10002380:	1924      	adds	r4, r4, r4
10002382:	416d      	adcs	r5, r5
10002384:	9a00      	ldr	r2, [sp, #0]
10002386:	b291      	uxth	r1, r2
10002388:	b2ac      	uxth	r4, r5
1000238a:	4361      	muls	r1, r4
1000238c:	0c17      	lsrs	r7, r2, #16
1000238e:	437c      	muls	r4, r7
10002390:	0c2b      	lsrs	r3, r5, #16
10002392:	435f      	muls	r7, r3
10002394:	b292      	uxth	r2, r2
10002396:	435a      	muls	r2, r3
10002398:	18a4      	adds	r4, r4, r2
1000239a:	d302      	bcc.n	100023a2 <l22_1>
1000239c:	2201      	movs	r2, #1
1000239e:	0412      	lsls	r2, r2, #16
100023a0:	18bf      	adds	r7, r7, r2

100023a2 <l22_1>:
100023a2:	0422      	lsls	r2, r4, #16
100023a4:	0c23      	lsrs	r3, r4, #16
100023a6:	1852      	adds	r2, r2, r1
100023a8:	417b      	adcs	r3, r7
100023aa:	9c01      	ldr	r4, [sp, #4]
100023ac:	436c      	muls	r4, r5
100023ae:	191b      	adds	r3, r3, r4
100023b0:	0e52      	lsrs	r2, r2, #25
100023b2:	01d9      	lsls	r1, r3, #7
100023b4:	430a      	orrs	r2, r1
100023b6:	0144      	lsls	r4, r0, #5
100023b8:	1aa0      	subs	r0, r4, r2
100023ba:	b281      	uxth	r1, r0
100023bc:	b2b2      	uxth	r2, r6
100023be:	4351      	muls	r1, r2
100023c0:	1403      	asrs	r3, r0, #16
100023c2:	435a      	muls	r2, r3
100023c4:	0c36      	lsrs	r6, r6, #16
100023c6:	4373      	muls	r3, r6
100023c8:	b287      	uxth	r7, r0
100023ca:	4377      	muls	r7, r6
100023cc:	17d6      	asrs	r6, r2, #31
100023ce:	19d2      	adds	r2, r2, r7
100023d0:	2700      	movs	r7, #0
100023d2:	417e      	adcs	r6, r7
100023d4:	0436      	lsls	r6, r6, #16
100023d6:	199b      	adds	r3, r3, r6
100023d8:	0417      	lsls	r7, r2, #16
100023da:	0c16      	lsrs	r6, r2, #16
100023dc:	187f      	adds	r7, r7, r1
100023de:	415e      	adcs	r6, r3
100023e0:	1673      	asrs	r3, r6, #25
100023e2:	18ed      	adds	r5, r5, r3
100023e4:	01f3      	lsls	r3, r6, #7
100023e6:	2600      	movs	r6, #0
100023e8:	3380      	adds	r3, #128	; 0x80
100023ea:	4175      	adcs	r5, r6
100023ec:	0fa9      	lsrs	r1, r5, #30
100023ee:	d106      	bne.n	100023fe <dd_0>
100023f0:	0064      	lsls	r4, r4, #1
100023f2:	0a69      	lsrs	r1, r5, #9
100023f4:	05e8      	lsls	r0, r5, #23
100023f6:	0a5b      	lsrs	r3, r3, #9
100023f8:	4318      	orrs	r0, r3
100023fa:	d209      	bcs.n	10002410 <dd_1>
100023fc:	e02f      	b.n	1000245e <dd_2>

100023fe <dd_0>:
100023fe:	2204      	movs	r2, #4
10002400:	4494      	add	ip, r2
10002402:	3380      	adds	r3, #128	; 0x80
10002404:	4175      	adcs	r5, r6
10002406:	0aa9      	lsrs	r1, r5, #10
10002408:	05a8      	lsls	r0, r5, #22
1000240a:	0a9b      	lsrs	r3, r3, #10
1000240c:	4318      	orrs	r0, r3
1000240e:	d326      	bcc.n	1000245e <dd_2>

10002410 <dd_1>:
10002410:	4140      	adcs	r0, r0
10002412:	4149      	adcs	r1, r1
10002414:	0424      	lsls	r4, r4, #16
10002416:	9a00      	ldr	r2, [sp, #0]
10002418:	9b01      	ldr	r3, [sp, #4]
1000241a:	000d      	movs	r5, r1
1000241c:	4355      	muls	r5, r2
1000241e:	1b64      	subs	r4, r4, r5
10002420:	4343      	muls	r3, r0
10002422:	1ae4      	subs	r4, r4, r3
10002424:	b295      	uxth	r5, r2
10002426:	b286      	uxth	r6, r0
10002428:	4375      	muls	r5, r6
1000242a:	0c17      	lsrs	r7, r2, #16
1000242c:	437e      	muls	r6, r7
1000242e:	0c03      	lsrs	r3, r0, #16
10002430:	435f      	muls	r7, r3
10002432:	b292      	uxth	r2, r2
10002434:	435a      	muls	r2, r3
10002436:	18b6      	adds	r6, r6, r2
10002438:	d302      	bcc.n	10002440 <l24_1>
1000243a:	2201      	movs	r2, #1
1000243c:	0412      	lsls	r2, r2, #16
1000243e:	18bf      	adds	r7, r7, r2

10002440 <l24_1>:
10002440:	0432      	lsls	r2, r6, #16
10002442:	0c33      	lsrs	r3, r6, #16
10002444:	1952      	adds	r2, r2, r5
10002446:	417b      	adcs	r3, r7
10002448:	4252      	negs	r2, r2
1000244a:	419c      	sbcs	r4, r3
1000244c:	2c00      	cmp	r4, #0
1000244e:	d402      	bmi.n	10002456 <l24_1+0x16>
10002450:	2200      	movs	r2, #0
10002452:	3001      	adds	r0, #1
10002454:	4151      	adcs	r1, r2
10002456:	0840      	lsrs	r0, r0, #1
10002458:	07ca      	lsls	r2, r1, #31
1000245a:	4310      	orrs	r0, r2
1000245c:	0849      	lsrs	r1, r1, #1

1000245e <dd_2>:
1000245e:	b002      	add	sp, #8
10002460:	4662      	mov	r2, ip
10002462:	07d7      	lsls	r7, r2, #31
10002464:	1092      	asrs	r2, r2, #2
10002466:	4b08      	ldr	r3, [pc, #32]	; (10002488 <dd_4+0x6>)
10002468:	18d2      	adds	r2, r2, r3
1000246a:	4b08      	ldr	r3, [pc, #32]	; (1000248c <dd_4+0xa>)
1000246c:	429a      	cmp	r2, r3
1000246e:	d203      	bcs.n	10002478 <dd_3>
10002470:	0512      	lsls	r2, r2, #20
10002472:	1889      	adds	r1, r1, r2

10002474 <dd_5>:
10002474:	19c9      	adds	r1, r1, r7
10002476:	bdf0      	pop	{r4, r5, r6, r7, pc}

10002478 <dd_3>:
10002478:	2000      	movs	r0, #0
1000247a:	2a00      	cmp	r2, #0
1000247c:	dc01      	bgt.n	10002482 <dd_4>
1000247e:	0039      	movs	r1, r7
10002480:	bdf0      	pop	{r4, r5, r6, r7, pc}

10002482 <dd_4>:
10002482:	3301      	adds	r3, #1
10002484:	0519      	lsls	r1, r3, #20
10002486:	e7f5      	b.n	10002474 <dd_5>
10002488:	000003fd 	.word	0x000003fd
1000248c:	000007fe 	.word	0x000007fe

10002490 <double2float_shim>:
10002490:	004a      	lsls	r2, r1, #1
10002492:	0d52      	lsrs	r2, r2, #21
10002494:	4b14      	ldr	r3, [pc, #80]	; (100024e8 <double2float_shim+0x58>)
10002496:	1ad2      	subs	r2, r2, r3
10002498:	dd13      	ble.n	100024c2 <double2float_shim+0x32>
1000249a:	2aff      	cmp	r2, #255	; 0xff
1000249c:	da1e      	bge.n	100024dc <double2float_shim+0x4c>
1000249e:	05d2      	lsls	r2, r2, #23
100024a0:	0fcb      	lsrs	r3, r1, #31
100024a2:	07db      	lsls	r3, r3, #31
100024a4:	431a      	orrs	r2, r3
100024a6:	00c3      	lsls	r3, r0, #3
100024a8:	0f40      	lsrs	r0, r0, #29
100024aa:	0309      	lsls	r1, r1, #12
100024ac:	0a49      	lsrs	r1, r1, #9
100024ae:	4308      	orrs	r0, r1
100024b0:	4310      	orrs	r0, r2
100024b2:	005b      	lsls	r3, r3, #1
100024b4:	d301      	bcc.n	100024ba <double2float_shim+0x2a>
100024b6:	d001      	beq.n	100024bc <double2float_shim+0x2c>
100024b8:	3001      	adds	r0, #1
100024ba:	4770      	bx	lr
100024bc:	0843      	lsrs	r3, r0, #1
100024be:	d2fb      	bcs.n	100024b8 <double2float_shim+0x28>
100024c0:	4770      	bx	lr
100024c2:	d002      	beq.n	100024ca <double2float_shim+0x3a>
100024c4:	0fc8      	lsrs	r0, r1, #31
100024c6:	07c0      	lsls	r0, r0, #31
100024c8:	4770      	bx	lr
100024ca:	030a      	lsls	r2, r1, #12
100024cc:	1312      	asrs	r2, r2, #12
100024ce:	3201      	adds	r2, #1
100024d0:	d1f8      	bne.n	100024c4 <double2float_shim+0x34>
100024d2:	0f42      	lsrs	r2, r0, #29
100024d4:	2a07      	cmp	r2, #7
100024d6:	d1f5      	bne.n	100024c4 <double2float_shim+0x34>
100024d8:	2201      	movs	r2, #1
100024da:	e000      	b.n	100024de <double2float_shim+0x4e>
100024dc:	22ff      	movs	r2, #255	; 0xff
100024de:	0fc8      	lsrs	r0, r1, #31
100024e0:	0200      	lsls	r0, r0, #8
100024e2:	1880      	adds	r0, r0, r2
100024e4:	05c0      	lsls	r0, r0, #23
100024e6:	4770      	bx	lr
100024e8:	00000380 	.word	0x00000380

100024ec <__wrap___aeabi_frsub>:
100024ec:	4048      	eors	r0, r1
100024ee:	4041      	eors	r1, r0
100024f0:	4048      	eors	r0, r1

100024f2 <__wrap___aeabi_fsub>:
100024f2:	4b0e      	ldr	r3, [pc, #56]	; (1000252c <__wrap___aeabi_fmul+0x6>)
100024f4:	685b      	ldr	r3, [r3, #4]
100024f6:	4718      	bx	r3

100024f8 <__wrap___aeabi_fadd>:
100024f8:	4b0c      	ldr	r3, [pc, #48]	; (1000252c <__wrap___aeabi_fmul+0x6>)
100024fa:	681b      	ldr	r3, [r3, #0]
100024fc:	4718      	bx	r3

100024fe <__wrap___aeabi_fdiv>:
100024fe:	4a0c      	ldr	r2, [pc, #48]	; (10002530 <__wrap___aeabi_fmul+0xa>)
10002500:	6f93      	ldr	r3, [r2, #120]	; 0x78
10002502:	089b      	lsrs	r3, r3, #2
10002504:	d202      	bcs.n	1000250c <fdiv_save_state>

10002506 <fdiv_shim_call>:
10002506:	4b09      	ldr	r3, [pc, #36]	; (1000252c <__wrap___aeabi_fmul+0x6>)
10002508:	68db      	ldr	r3, [r3, #12]
1000250a:	4718      	bx	r3

1000250c <fdiv_save_state>:
1000250c:	b5f0      	push	{r4, r5, r6, r7, lr}
1000250e:	6e14      	ldr	r4, [r2, #96]	; 0x60
10002510:	6e55      	ldr	r5, [r2, #100]	; 0x64
10002512:	6f57      	ldr	r7, [r2, #116]	; 0x74
10002514:	6f16      	ldr	r6, [r2, #112]	; 0x70
10002516:	f7ff fff6 	bl	10002506 <fdiv_shim_call>
1000251a:	4a05      	ldr	r2, [pc, #20]	; (10002530 <__wrap___aeabi_fmul+0xa>)
1000251c:	6614      	str	r4, [r2, #96]	; 0x60
1000251e:	6655      	str	r5, [r2, #100]	; 0x64
10002520:	6757      	str	r7, [r2, #116]	; 0x74
10002522:	6716      	str	r6, [r2, #112]	; 0x70
10002524:	bdf0      	pop	{r4, r5, r6, r7, pc}

10002526 <__wrap___aeabi_fmul>:
10002526:	4b01      	ldr	r3, [pc, #4]	; (1000252c <__wrap___aeabi_fmul+0x6>)
10002528:	689b      	ldr	r3, [r3, #8]
1000252a:	4718      	bx	r3
1000252c:	200006f8 	.word	0x200006f8
10002530:	d0000000 	.word	0xd0000000

10002534 <__wrap___aeabi_ui2f>:
10002534:	1a49      	subs	r1, r1, r1
10002536:	2800      	cmp	r0, #0
10002538:	d108      	bne.n	1000254c <__aeabi_i2f_main>
1000253a:	4608      	mov	r0, r1
1000253c:	4770      	bx	lr
	...

10002540 <__wrap___aeabi_i2f>:
10002540:	0fc1      	lsrs	r1, r0, #31
10002542:	07c9      	lsls	r1, r1, #31
10002544:	d500      	bpl.n	10002548 <__wrap___aeabi_i2f+0x8>
10002546:	4240      	negs	r0, r0
10002548:	2800      	cmp	r0, #0
1000254a:	d017      	beq.n	1000257c <__aeabi_i2f_main+0x30>

1000254c <__aeabi_i2f_main>:
1000254c:	46f4      	mov	ip, lr
1000254e:	b403      	push	{r0, r1}
10002550:	4b0b      	ldr	r3, [pc, #44]	; (10002580 <__aeabi_i2f_main+0x34>)
10002552:	681b      	ldr	r3, [r3, #0]
10002554:	4798      	blx	r3
10002556:	bc06      	pop	{r1, r2}
10002558:	4081      	lsls	r1, r0
1000255a:	389e      	subs	r0, #158	; 0x9e
1000255c:	4240      	negs	r0, r0
1000255e:	3180      	adds	r1, #128	; 0x80
10002560:	d207      	bcs.n	10002572 <__aeabi_i2f_main+0x26>
10002562:	060b      	lsls	r3, r1, #24
10002564:	d007      	beq.n	10002576 <__aeabi_i2f_main+0x2a>
10002566:	0049      	lsls	r1, r1, #1
10002568:	0a49      	lsrs	r1, r1, #9
1000256a:	05c0      	lsls	r0, r0, #23
1000256c:	4310      	orrs	r0, r2
1000256e:	4308      	orrs	r0, r1
10002570:	4760      	bx	ip
10002572:	3001      	adds	r0, #1
10002574:	e7f8      	b.n	10002568 <__aeabi_i2f_main+0x1c>
10002576:	0a49      	lsrs	r1, r1, #9
10002578:	0289      	lsls	r1, r1, #10
1000257a:	e7f5      	b.n	10002568 <__aeabi_i2f_main+0x1c>
1000257c:	4770      	bx	lr
1000257e:	0000      	.short	0x0000
10002580:	200008b4 	.word	0x200008b4

10002584 <__wrap___aeabi_f2uiz>:
10002584:	4b01      	ldr	r3, [pc, #4]	; (1000258c <__wrap___aeabi_f2uiz+0x8>)
10002586:	6a5b      	ldr	r3, [r3, #36]	; 0x24
10002588:	4718      	bx	r3
1000258a:	0000      	.short	0x0000
1000258c:	200006f8 	.word	0x200006f8

10002590 <fix2float>:
10002590:	4b01      	ldr	r3, [pc, #4]	; (10002598 <fix2float+0x8>)
10002592:	6b1b      	ldr	r3, [r3, #48]	; 0x30
10002594:	4718      	bx	r3
10002596:	0000      	.short	0x0000
10002598:	200006f8 	.word	0x200006f8

1000259c <__wrap___aeabi_f2d>:
1000259c:	4b03      	ldr	r3, [pc, #12]	; (100025ac <__wrap___aeabi_f2d+0x10>)
1000259e:	6fdb      	ldr	r3, [r3, #124]	; 0x7c
100025a0:	46fc      	mov	ip, pc
100025a2:	4718      	bx	r3
100025a4:	27bddf7c 	.word	0x27bddf7c
100025a8:	00001000 	.word	0x00001000
100025ac:	200006f8 	.word	0x200006f8

100025b0 <__wrap_sinf>:
100025b0:	0041      	lsls	r1, r0, #1
100025b2:	0e09      	lsrs	r1, r1, #24
100025b4:	2986      	cmp	r1, #134	; 0x86
100025b6:	da02      	bge.n	100025be <__wrap_sinf+0xe>
100025b8:	4b04      	ldr	r3, [pc, #16]	; (100025cc <__wrap_sinf+0x1c>)
100025ba:	6c1b      	ldr	r3, [r3, #64]	; 0x40
100025bc:	4718      	bx	r3
100025be:	4904      	ldr	r1, [pc, #16]	; (100025d0 <__wrap_sinf+0x20>)
100025c0:	b500      	push	{lr}
100025c2:	f000 f8df 	bl	10002784 <__wrap_remainderf>
100025c6:	bc02      	pop	{r1}
100025c8:	468e      	mov	lr, r1
100025ca:	e7f5      	b.n	100025b8 <__wrap_sinf+0x8>
100025cc:	200006f8 	.word	0x200006f8
100025d0:	40c90fdb 	.word	0x40c90fdb

100025d4 <__aeabi_float_init>:
100025d4:	2313      	movs	r3, #19
100025d6:	b510      	push	{r4, lr}
100025d8:	4812      	ldr	r0, [pc, #72]	; (10002624 <__aeabi_float_init+0x50>)
100025da:	781c      	ldrb	r4, [r3, #0]
100025dc:	f7ff fbb8 	bl	10001d50 <rom_data_lookup>
100025e0:	0001      	movs	r1, r0
100025e2:	2c01      	cmp	r4, #1
100025e4:	d00a      	beq.n	100025fc <__aeabi_float_init+0x28>
100025e6:	dd03      	ble.n	100025f0 <__aeabi_float_init+0x1c>
100025e8:	2280      	movs	r2, #128	; 0x80
100025ea:	480f      	ldr	r0, [pc, #60]	; (10002628 <__aeabi_float_init+0x54>)
100025ec:	f000 f906 	bl	100027fc <__wrap___aeabi_memcpy>
100025f0:	480e      	ldr	r0, [pc, #56]	; (1000262c <__aeabi_float_init+0x58>)
100025f2:	f7ff fba5 	bl	10001d40 <rom_func_lookup>
100025f6:	4b0e      	ldr	r3, [pc, #56]	; (10002630 <__aeabi_float_init+0x5c>)
100025f8:	6018      	str	r0, [r3, #0]
100025fa:	bd10      	pop	{r4, pc}
100025fc:	4c0a      	ldr	r4, [pc, #40]	; (10002628 <__aeabi_float_init+0x54>)
100025fe:	2254      	movs	r2, #84	; 0x54
10002600:	0020      	movs	r0, r4
10002602:	f000 f8fb 	bl	100027fc <__wrap___aeabi_memcpy>
10002606:	4b0b      	ldr	r3, [pc, #44]	; (10002634 <__aeabi_float_init+0x60>)
10002608:	6563      	str	r3, [r4, #84]	; 0x54
1000260a:	65a3      	str	r3, [r4, #88]	; 0x58
1000260c:	65e3      	str	r3, [r4, #92]	; 0x5c
1000260e:	6623      	str	r3, [r4, #96]	; 0x60
10002610:	6663      	str	r3, [r4, #100]	; 0x64
10002612:	66a3      	str	r3, [r4, #104]	; 0x68
10002614:	66e3      	str	r3, [r4, #108]	; 0x6c
10002616:	6723      	str	r3, [r4, #112]	; 0x70
10002618:	6763      	str	r3, [r4, #116]	; 0x74
1000261a:	67a3      	str	r3, [r4, #120]	; 0x78
1000261c:	67e3      	str	r3, [r4, #124]	; 0x7c
1000261e:	6223      	str	r3, [r4, #32]
10002620:	61e3      	str	r3, [r4, #28]
10002622:	e7e5      	b.n	100025f0 <__aeabi_float_init+0x1c>
10002624:	00004653 	.word	0x00004653
10002628:	200006f8 	.word	0x200006f8
1000262c:	0000334c 	.word	0x0000334c
10002630:	200008b4 	.word	0x200008b4
10002634:	10002791 	.word	0x10002791

10002638 <__wrap_remquof>:
10002638:	b5f8      	push	{r3, r4, r5, r6, r7, lr}
1000263a:	4645      	mov	r5, r8
1000263c:	4657      	mov	r7, sl
1000263e:	464e      	mov	r6, r9
10002640:	46de      	mov	lr, fp
10002642:	b5e0      	push	{r5, r6, r7, lr}
10002644:	26ff      	movs	r6, #255	; 0xff
10002646:	4688      	mov	r8, r1
10002648:	0dc5      	lsrs	r5, r0, #23
1000264a:	0dc9      	lsrs	r1, r1, #23
1000264c:	4035      	ands	r5, r6
1000264e:	0017      	movs	r7, r2
10002650:	1c04      	adds	r4, r0, #0
10002652:	400e      	ands	r6, r1
10002654:	2a00      	cmp	r2, #0
10002656:	d001      	beq.n	1000265c <__wrap_remquof+0x24>
10002658:	2300      	movs	r3, #0
1000265a:	6013      	str	r3, [r2, #0]
1000265c:	2dff      	cmp	r5, #255	; 0xff
1000265e:	d060      	beq.n	10002722 <__wrap_remquof+0xea>
10002660:	2e00      	cmp	r6, #0
10002662:	d05e      	beq.n	10002722 <__wrap_remquof+0xea>
10002664:	2d00      	cmp	r5, #0
10002666:	d05f      	beq.n	10002728 <__wrap_remquof+0xf0>
10002668:	1c20      	adds	r0, r4, #0
1000266a:	2eff      	cmp	r6, #255	; 0xff
1000266c:	d053      	beq.n	10002716 <__wrap_remquof+0xde>
1000266e:	1e73      	subs	r3, r6, #1
10002670:	42ab      	cmp	r3, r5
10002672:	dc50      	bgt.n	10002716 <__wrap_remquof+0xde>
10002674:	0fe2      	lsrs	r2, r4, #31
10002676:	4694      	mov	ip, r2
10002678:	2280      	movs	r2, #128	; 0x80
1000267a:	0412      	lsls	r2, r2, #16
1000267c:	4691      	mov	r9, r2
1000267e:	0264      	lsls	r4, r4, #9
10002680:	0a64      	lsrs	r4, r4, #9
10002682:	4314      	orrs	r4, r2
10002684:	4642      	mov	r2, r8
10002686:	4649      	mov	r1, r9
10002688:	0252      	lsls	r2, r2, #9
1000268a:	0a52      	lsrs	r2, r2, #9
1000268c:	4311      	orrs	r1, r2
1000268e:	4689      	mov	r9, r1
10002690:	42ab      	cmp	r3, r5
10002692:	d051      	beq.n	10002738 <__wrap_remquof+0x100>
10002694:	4663      	mov	r3, ip
10002696:	2b00      	cmp	r3, #0
10002698:	d058      	beq.n	1000274c <__wrap_remquof+0x114>
1000269a:	2100      	movs	r1, #0
1000269c:	4264      	negs	r4, r4
1000269e:	1bad      	subs	r5, r5, r6
100026a0:	2d00      	cmp	r5, #0
100026a2:	dd5c      	ble.n	1000275e <__wrap_remquof+0x126>
100026a4:	464b      	mov	r3, r9
100026a6:	2001      	movs	r0, #1
100026a8:	11d9      	asrs	r1, r3, #7
100026aa:	4240      	negs	r0, r0
100026ac:	f7ff fba2 	bl	10001df4 <__wrap___aeabi_uidiv>
100026b0:	231d      	movs	r3, #29
100026b2:	4683      	mov	fp, r0
100026b4:	2100      	movs	r1, #0
100026b6:	469c      	mov	ip, r3
100026b8:	002a      	movs	r2, r5
100026ba:	2d0c      	cmp	r5, #12
100026bc:	dd00      	ble.n	100026c0 <__wrap_remquof+0x88>
100026be:	220c      	movs	r2, #12
100026c0:	4658      	mov	r0, fp
100026c2:	1263      	asrs	r3, r4, #9
100026c4:	4094      	lsls	r4, r2
100026c6:	4343      	muls	r3, r0
100026c8:	4660      	mov	r0, ip
100026ca:	46a2      	mov	sl, r4
100026cc:	1a80      	subs	r0, r0, r2
100026ce:	4103      	asrs	r3, r0
100026d0:	464c      	mov	r4, r9
100026d2:	4650      	mov	r0, sl
100026d4:	4091      	lsls	r1, r2
100026d6:	3301      	adds	r3, #1
100026d8:	105b      	asrs	r3, r3, #1
100026da:	435c      	muls	r4, r3
100026dc:	1859      	adds	r1, r3, r1
100026de:	1b04      	subs	r4, r0, r4
100026e0:	1aad      	subs	r5, r5, r2
100026e2:	2d00      	cmp	r5, #0
100026e4:	dce8      	bgt.n	100026b8 <__wrap_remquof+0x80>
100026e6:	45a1      	cmp	r9, r4
100026e8:	dc37      	bgt.n	1000275a <__wrap_remquof+0x122>
100026ea:	464b      	mov	r3, r9
100026ec:	1ae4      	subs	r4, r4, r3
100026ee:	45a1      	cmp	r9, r4
100026f0:	dc46      	bgt.n	10002780 <__wrap_remquof+0x148>
100026f2:	1ae4      	subs	r4, r4, r3
100026f4:	3102      	adds	r1, #2
100026f6:	0063      	lsls	r3, r4, #1
100026f8:	454b      	cmp	r3, r9
100026fa:	dc19      	bgt.n	10002730 <__wrap_remquof+0xf8>
100026fc:	d016      	beq.n	1000272c <__wrap_remquof+0xf4>
100026fe:	4643      	mov	r3, r8
10002700:	2b00      	cmp	r3, #0
10002702:	da00      	bge.n	10002706 <__wrap_remquof+0xce>
10002704:	4249      	negs	r1, r1
10002706:	2f00      	cmp	r7, #0
10002708:	d000      	beq.n	1000270c <__wrap_remquof+0xd4>
1000270a:	6039      	str	r1, [r7, #0]
1000270c:	2196      	movs	r1, #150	; 0x96
1000270e:	0020      	movs	r0, r4
10002710:	1b89      	subs	r1, r1, r6
10002712:	f7ff ff3d 	bl	10002590 <fix2float>
10002716:	bcf0      	pop	{r4, r5, r6, r7}
10002718:	46bb      	mov	fp, r7
1000271a:	46b2      	mov	sl, r6
1000271c:	46a9      	mov	r9, r5
1000271e:	46a0      	mov	r8, r4
10002720:	bdf8      	pop	{r3, r4, r5, r6, r7, pc}
10002722:	20ff      	movs	r0, #255	; 0xff
10002724:	05c0      	lsls	r0, r0, #23
10002726:	e7f6      	b.n	10002716 <__wrap_remquof+0xde>
10002728:	2000      	movs	r0, #0
1000272a:	e7f4      	b.n	10002716 <__wrap_remquof+0xde>
1000272c:	07cb      	lsls	r3, r1, #31
1000272e:	d5e6      	bpl.n	100026fe <__wrap_remquof+0xc6>
10002730:	464b      	mov	r3, r9
10002732:	3101      	adds	r1, #1
10002734:	1ae4      	subs	r4, r4, r3
10002736:	e7e2      	b.n	100026fe <__wrap_remquof+0xc6>
10002738:	428c      	cmp	r4, r1
1000273a:	ddec      	ble.n	10002716 <__wrap_remquof+0xde>
1000273c:	4663      	mov	r3, ip
1000273e:	2b00      	cmp	r3, #0
10002740:	d113      	bne.n	1000276a <__wrap_remquof+0x132>
10002742:	004b      	lsls	r3, r1, #1
10002744:	002e      	movs	r6, r5
10002746:	2101      	movs	r1, #1
10002748:	1ae4      	subs	r4, r4, r3
1000274a:	e7d8      	b.n	100026fe <__wrap_remquof+0xc6>
1000274c:	1bad      	subs	r5, r5, r6
1000274e:	2d00      	cmp	r5, #0
10002750:	dca8      	bgt.n	100026a4 <__wrap_remquof+0x6c>
10002752:	428c      	cmp	r4, r1
10002754:	da11      	bge.n	1000277a <__wrap_remquof+0x142>
10002756:	2100      	movs	r1, #0
10002758:	e7cd      	b.n	100026f6 <__wrap_remquof+0xbe>
1000275a:	2c00      	cmp	r4, #0
1000275c:	dacb      	bge.n	100026f6 <__wrap_remquof+0xbe>
1000275e:	464b      	mov	r3, r9
10002760:	18e4      	adds	r4, r4, r3
10002762:	d508      	bpl.n	10002776 <__wrap_remquof+0x13e>
10002764:	444c      	add	r4, r9
10002766:	3902      	subs	r1, #2
10002768:	e7c5      	b.n	100026f6 <__wrap_remquof+0xbe>
1000276a:	004b      	lsls	r3, r1, #1
1000276c:	2101      	movs	r1, #1
1000276e:	002e      	movs	r6, r5
10002770:	1b1c      	subs	r4, r3, r4
10002772:	4249      	negs	r1, r1
10002774:	e7c3      	b.n	100026fe <__wrap_remquof+0xc6>
10002776:	3901      	subs	r1, #1
10002778:	e7bd      	b.n	100026f6 <__wrap_remquof+0xbe>
1000277a:	464b      	mov	r3, r9
1000277c:	2100      	movs	r1, #0
1000277e:	1ae4      	subs	r4, r4, r3
10002780:	3101      	adds	r1, #1
10002782:	e7b8      	b.n	100026f6 <__wrap_remquof+0xbe>

10002784 <__wrap_remainderf>:
10002784:	b510      	push	{r4, lr}
10002786:	2200      	movs	r2, #0
10002788:	f7ff ff56 	bl	10002638 <__wrap_remquof>
1000278c:	bd10      	pop	{r4, pc}
1000278e:	46c0      	nop			; (mov r8, r8)

10002790 <float_table_shim_on_use_helper>:
10002790:	b507      	push	{r0, r1, r2, lr}
10002792:	4660      	mov	r0, ip
10002794:	8801      	ldrh	r1, [r0, #0]
10002796:	0a0a      	lsrs	r2, r1, #8
10002798:	3002      	adds	r0, #2
1000279a:	2adf      	cmp	r2, #223	; 0xdf
1000279c:	d1fa      	bne.n	10002794 <float_table_shim_on_use_helper+0x4>
1000279e:	b2c9      	uxtb	r1, r1
100027a0:	0882      	lsrs	r2, r0, #2
100027a2:	d304      	bcc.n	100027ae <float_table_shim_on_use_helper+0x1e>
100027a4:	8802      	ldrh	r2, [r0, #0]
100027a6:	8840      	ldrh	r0, [r0, #2]
100027a8:	0400      	lsls	r0, r0, #16
100027aa:	4310      	orrs	r0, r2
100027ac:	e000      	b.n	100027b0 <float_table_shim_on_use_helper+0x20>
100027ae:	6800      	ldr	r0, [r0, #0]
100027b0:	4a01      	ldr	r2, [pc, #4]	; (100027b8 <float_table_shim_on_use_helper+0x28>)
100027b2:	5050      	str	r0, [r2, r1]
100027b4:	9003      	str	r0, [sp, #12]
100027b6:	bd07      	pop	{r0, r1, r2, pc}
100027b8:	200006f8 	.word	0x200006f8

100027bc <float2double_shim>:
100027bc:	0fc3      	lsrs	r3, r0, #31
100027be:	07db      	lsls	r3, r3, #31
100027c0:	0041      	lsls	r1, r0, #1
100027c2:	0e0a      	lsrs	r2, r1, #24
100027c4:	d007      	beq.n	100027d6 <float2double_shim+0x1a>
100027c6:	2aff      	cmp	r2, #255	; 0xff
100027c8:	d008      	beq.n	100027dc <float2double_shim+0x20>
100027ca:	0909      	lsrs	r1, r1, #4
100027cc:	4a05      	ldr	r2, [pc, #20]	; (100027e4 <float2double_shim+0x28>)
100027ce:	1889      	adds	r1, r1, r2
100027d0:	4319      	orrs	r1, r3
100027d2:	0740      	lsls	r0, r0, #29
100027d4:	4770      	bx	lr
100027d6:	0019      	movs	r1, r3
100027d8:	2000      	movs	r0, #0
100027da:	4770      	bx	lr
100027dc:	4902      	ldr	r1, [pc, #8]	; (100027e8 <float2double_shim+0x2c>)
100027de:	18c9      	adds	r1, r1, r3
100027e0:	e7fa      	b.n	100027d8 <float2double_shim+0x1c>
100027e2:	0000      	.short	0x0000
100027e4:	38000000 	.word	0x38000000
100027e8:	7ff00000 	.word	0x7ff00000

100027ec <__aeabi_mem_init>:
100027ec:	4801      	ldr	r0, [pc, #4]	; (100027f4 <__aeabi_mem_init+0x8>)
100027ee:	2104      	movs	r1, #4
100027f0:	4b01      	ldr	r3, [pc, #4]	; (100027f8 <__aeabi_mem_init+0xc>)
100027f2:	4718      	bx	r3
100027f4:	200003c0 	.word	0x200003c0
100027f8:	10001d61 	.word	0x10001d61

100027fc <__wrap___aeabi_memcpy>:
100027fc:	4b01      	ldr	r3, [pc, #4]	; (10002804 <__wrap___aeabi_memcpy+0x8>)
100027fe:	685b      	ldr	r3, [r3, #4]
10002800:	4718      	bx	r3
10002802:	0000      	.short	0x0000
10002804:	200003c0 	.word	0x200003c0

10002808 <stdio_out_chars_no_crlf>:
10002808:	0003      	movs	r3, r0
1000280a:	b510      	push	{r4, lr}
1000280c:	0008      	movs	r0, r1
1000280e:	0011      	movs	r1, r2
10002810:	681b      	ldr	r3, [r3, #0]
10002812:	4798      	blx	r3
10002814:	bd10      	pop	{r4, pc}
10002816:	46c0      	nop			; (mov r8, r8)

10002818 <stdio_out_chars_crlf>:
10002818:	b5f0      	push	{r4, r5, r6, r7, lr}
1000281a:	4646      	mov	r6, r8
1000281c:	464f      	mov	r7, r9
1000281e:	46d6      	mov	lr, sl
10002820:	b5c0      	push	{r6, r7, lr}
10002822:	7d43      	ldrb	r3, [r0, #21]
10002824:	4680      	mov	r8, r0
10002826:	000e      	movs	r6, r1
10002828:	0017      	movs	r7, r2
1000282a:	2b00      	cmp	r3, #0
1000282c:	d046      	beq.n	100028bc <stdio_out_chars_crlf+0xa4>
1000282e:	2a00      	cmp	r2, #0
10002830:	dd3f      	ble.n	100028b2 <stdio_out_chars_crlf+0x9a>
10002832:	1e4b      	subs	r3, r1, #1
10002834:	4699      	mov	r9, r3
10002836:	4b24      	ldr	r3, [pc, #144]	; (100028c8 <stdio_out_chars_crlf+0xb0>)
10002838:	2501      	movs	r5, #1
1000283a:	2400      	movs	r4, #0
1000283c:	2000      	movs	r0, #0
1000283e:	469a      	mov	sl, r3
10002840:	e00d      	b.n	1000285e <stdio_out_chars_crlf+0x46>
10002842:	464b      	mov	r3, r9
10002844:	5d1b      	ldrb	r3, [r3, r4]
10002846:	3b0d      	subs	r3, #13
10002848:	425a      	negs	r2, r3
1000284a:	4153      	adcs	r3, r2
1000284c:	5d32      	ldrb	r2, [r6, r4]
1000284e:	b2db      	uxtb	r3, r3
10002850:	2a0a      	cmp	r2, #10
10002852:	d00b      	beq.n	1000286c <stdio_out_chars_crlf+0x54>
10002854:	002b      	movs	r3, r5
10002856:	3401      	adds	r4, #1
10002858:	3501      	adds	r5, #1
1000285a:	429f      	cmp	r7, r3
1000285c:	dd1a      	ble.n	10002894 <stdio_out_chars_crlf+0x7c>
1000285e:	2c00      	cmp	r4, #0
10002860:	d1ef      	bne.n	10002842 <stdio_out_chars_crlf+0x2a>
10002862:	4643      	mov	r3, r8
10002864:	5d32      	ldrb	r2, [r6, r4]
10002866:	7d1b      	ldrb	r3, [r3, #20]
10002868:	2a0a      	cmp	r2, #10
1000286a:	d1f3      	bne.n	10002854 <stdio_out_chars_crlf+0x3c>
1000286c:	2b00      	cmp	r3, #0
1000286e:	d1f1      	bne.n	10002854 <stdio_out_chars_crlf+0x3c>
10002870:	42a0      	cmp	r0, r4
10002872:	da04      	bge.n	1000287e <stdio_out_chars_crlf+0x66>
10002874:	4643      	mov	r3, r8
10002876:	1a21      	subs	r1, r4, r0
10002878:	681b      	ldr	r3, [r3, #0]
1000287a:	1830      	adds	r0, r6, r0
1000287c:	4798      	blx	r3
1000287e:	4643      	mov	r3, r8
10002880:	4650      	mov	r0, sl
10002882:	681b      	ldr	r3, [r3, #0]
10002884:	2102      	movs	r1, #2
10002886:	4798      	blx	r3
10002888:	3401      	adds	r4, #1
1000288a:	0028      	movs	r0, r5
1000288c:	002b      	movs	r3, r5
1000288e:	3501      	adds	r5, #1
10002890:	429f      	cmp	r7, r3
10002892:	dce4      	bgt.n	1000285e <stdio_out_chars_crlf+0x46>
10002894:	4287      	cmp	r7, r0
10002896:	dd04      	ble.n	100028a2 <stdio_out_chars_crlf+0x8a>
10002898:	4643      	mov	r3, r8
1000289a:	1a39      	subs	r1, r7, r0
1000289c:	681b      	ldr	r3, [r3, #0]
1000289e:	1830      	adds	r0, r6, r0
100028a0:	4798      	blx	r3
100028a2:	19f6      	adds	r6, r6, r7
100028a4:	3e01      	subs	r6, #1
100028a6:	7833      	ldrb	r3, [r6, #0]
100028a8:	3b0d      	subs	r3, #13
100028aa:	425a      	negs	r2, r3
100028ac:	4153      	adcs	r3, r2
100028ae:	4642      	mov	r2, r8
100028b0:	7513      	strb	r3, [r2, #20]
100028b2:	bce0      	pop	{r5, r6, r7}
100028b4:	46ba      	mov	sl, r7
100028b6:	46b1      	mov	r9, r6
100028b8:	46a8      	mov	r8, r5
100028ba:	bdf0      	pop	{r4, r5, r6, r7, pc}
100028bc:	6803      	ldr	r3, [r0, #0]
100028be:	0011      	movs	r1, r2
100028c0:	0030      	movs	r0, r6
100028c2:	4798      	blx	r3
100028c4:	e7f5      	b.n	100028b2 <stdio_out_chars_crlf+0x9a>
100028c6:	46c0      	nop			; (mov r8, r8)
100028c8:	10002de8 	.word	0x10002de8

100028cc <stdio_put_string.isra.0>:
100028cc:	b5f0      	push	{r4, r5, r6, r7, lr}
100028ce:	46de      	mov	lr, fp
100028d0:	4657      	mov	r7, sl
100028d2:	464e      	mov	r6, r9
100028d4:	4645      	mov	r5, r8
100028d6:	b5e0      	push	{r5, r6, r7, lr}
100028d8:	b085      	sub	sp, #20
100028da:	0017      	movs	r7, r2
100028dc:	001c      	movs	r4, r3
100028de:	0006      	movs	r6, r0
100028e0:	000d      	movs	r5, r1
100028e2:	f7fe fce3 	bl	100012ac <time_us_64>
100028e6:	2300      	movs	r3, #0
100028e8:	4a30      	ldr	r2, [pc, #192]	; (100029ac <stdio_put_string.isra.0+0xe0>)
100028ea:	1812      	adds	r2, r2, r0
100028ec:	414b      	adcs	r3, r1
100028ee:	2b00      	cmp	r3, #0
100028f0:	db58      	blt.n	100029a4 <stdio_put_string.isra.0+0xd8>
100028f2:	492f      	ldr	r1, [pc, #188]	; (100029b0 <stdio_put_string.isra.0+0xe4>)
100028f4:	0008      	movs	r0, r1
100028f6:	468a      	mov	sl, r1
100028f8:	f000 f9f2 	bl	10002ce0 <__mutex_try_enter_block_until_veneer>
100028fc:	9001      	str	r0, [sp, #4]
100028fe:	1c6b      	adds	r3, r5, #1
10002900:	d103      	bne.n	1000290a <stdio_put_string.isra.0+0x3e>
10002902:	0030      	movs	r0, r6
10002904:	f000 f9a2 	bl	10002c4c <strlen>
10002908:	0005      	movs	r5, r0
1000290a:	2c00      	cmp	r4, #0
1000290c:	d125      	bne.n	1000295a <stdio_put_string.isra.0+0x8e>
1000290e:	4b29      	ldr	r3, [pc, #164]	; (100029b4 <stdio_put_string.isra.0+0xe8>)
10002910:	4698      	mov	r8, r3
10002912:	4b29      	ldr	r3, [pc, #164]	; (100029b8 <stdio_put_string.isra.0+0xec>)
10002914:	681c      	ldr	r4, [r3, #0]
10002916:	2c00      	cmp	r4, #0
10002918:	d015      	beq.n	10002946 <stdio_put_string.isra.0+0x7a>
1000291a:	2f00      	cmp	r7, #0
1000291c:	d120      	bne.n	10002960 <stdio_put_string.isra.0+0x94>
1000291e:	4f27      	ldr	r7, [pc, #156]	; (100029bc <stdio_put_string.isra.0+0xf0>)
10002920:	e002      	b.n	10002928 <stdio_put_string.isra.0+0x5c>
10002922:	6924      	ldr	r4, [r4, #16]
10002924:	2c00      	cmp	r4, #0
10002926:	d00e      	beq.n	10002946 <stdio_put_string.isra.0+0x7a>
10002928:	6823      	ldr	r3, [r4, #0]
1000292a:	2b00      	cmp	r3, #0
1000292c:	d0f9      	beq.n	10002922 <stdio_put_string.isra.0+0x56>
1000292e:	683b      	ldr	r3, [r7, #0]
10002930:	2b00      	cmp	r3, #0
10002932:	d001      	beq.n	10002938 <stdio_put_string.isra.0+0x6c>
10002934:	42a3      	cmp	r3, r4
10002936:	d1f4      	bne.n	10002922 <stdio_put_string.isra.0+0x56>
10002938:	0020      	movs	r0, r4
1000293a:	002a      	movs	r2, r5
1000293c:	0031      	movs	r1, r6
1000293e:	47c0      	blx	r8
10002940:	6924      	ldr	r4, [r4, #16]
10002942:	2c00      	cmp	r4, #0
10002944:	d1f0      	bne.n	10002928 <stdio_put_string.isra.0+0x5c>
10002946:	9b01      	ldr	r3, [sp, #4]
10002948:	2b00      	cmp	r3, #0
1000294a:	d127      	bne.n	1000299c <stdio_put_string.isra.0+0xd0>
1000294c:	b005      	add	sp, #20
1000294e:	bcf0      	pop	{r4, r5, r6, r7}
10002950:	46bb      	mov	fp, r7
10002952:	46b2      	mov	sl, r6
10002954:	46a9      	mov	r9, r5
10002956:	46a0      	mov	r8, r4
10002958:	bdf0      	pop	{r4, r5, r6, r7, pc}
1000295a:	4b19      	ldr	r3, [pc, #100]	; (100029c0 <stdio_put_string.isra.0+0xf4>)
1000295c:	4698      	mov	r8, r3
1000295e:	e7d8      	b.n	10002912 <stdio_put_string.isra.0+0x46>
10002960:	4b16      	ldr	r3, [pc, #88]	; (100029bc <stdio_put_string.isra.0+0xf0>)
10002962:	4699      	mov	r9, r3
10002964:	ab02      	add	r3, sp, #8
10002966:	1ddf      	adds	r7, r3, #7
10002968:	230a      	movs	r3, #10
1000296a:	469b      	mov	fp, r3
1000296c:	e002      	b.n	10002974 <stdio_put_string.isra.0+0xa8>
1000296e:	6924      	ldr	r4, [r4, #16]
10002970:	2c00      	cmp	r4, #0
10002972:	d0e8      	beq.n	10002946 <stdio_put_string.isra.0+0x7a>
10002974:	6823      	ldr	r3, [r4, #0]
10002976:	2b00      	cmp	r3, #0
10002978:	d0f9      	beq.n	1000296e <stdio_put_string.isra.0+0xa2>
1000297a:	464b      	mov	r3, r9
1000297c:	681b      	ldr	r3, [r3, #0]
1000297e:	2b00      	cmp	r3, #0
10002980:	d001      	beq.n	10002986 <stdio_put_string.isra.0+0xba>
10002982:	42a3      	cmp	r3, r4
10002984:	d1f3      	bne.n	1000296e <stdio_put_string.isra.0+0xa2>
10002986:	002a      	movs	r2, r5
10002988:	0031      	movs	r1, r6
1000298a:	0020      	movs	r0, r4
1000298c:	47c0      	blx	r8
1000298e:	465b      	mov	r3, fp
10002990:	2201      	movs	r2, #1
10002992:	0039      	movs	r1, r7
10002994:	0020      	movs	r0, r4
10002996:	703b      	strb	r3, [r7, #0]
10002998:	47c0      	blx	r8
1000299a:	e7e8      	b.n	1000296e <stdio_put_string.isra.0+0xa2>
1000299c:	4650      	mov	r0, sl
1000299e:	f000 f987 	bl	10002cb0 <__mutex_exit_veneer>
100029a2:	e7d3      	b.n	1000294c <stdio_put_string.isra.0+0x80>
100029a4:	2201      	movs	r2, #1
100029a6:	4b07      	ldr	r3, [pc, #28]	; (100029c4 <stdio_put_string.isra.0+0xf8>)
100029a8:	4252      	negs	r2, r2
100029aa:	e7a2      	b.n	100028f2 <stdio_put_string.isra.0+0x26>
100029ac:	000f4240 	.word	0x000f4240
100029b0:	200003d8 	.word	0x200003d8
100029b4:	10002819 	.word	0x10002819
100029b8:	20000894 	.word	0x20000894
100029bc:	20000898 	.word	0x20000898
100029c0:	10002809 	.word	0x10002809
100029c4:	7fffffff 	.word	0x7fffffff

100029c8 <__wrap_putchar>:
100029c8:	b5f0      	push	{r4, r5, r6, r7, lr}
100029ca:	46ce      	mov	lr, r9
100029cc:	4647      	mov	r7, r8
100029ce:	b580      	push	{r7, lr}
100029d0:	b083      	sub	sp, #12
100029d2:	466b      	mov	r3, sp
100029d4:	0006      	movs	r6, r0
100029d6:	1ddd      	adds	r5, r3, #7
100029d8:	7028      	strb	r0, [r5, #0]
100029da:	f7fe fc67 	bl	100012ac <time_us_64>
100029de:	2300      	movs	r3, #0
100029e0:	4a1a      	ldr	r2, [pc, #104]	; (10002a4c <__wrap_putchar+0x84>)
100029e2:	1812      	adds	r2, r2, r0
100029e4:	414b      	adcs	r3, r1
100029e6:	2b00      	cmp	r3, #0
100029e8:	db2b      	blt.n	10002a42 <__wrap_putchar+0x7a>
100029ea:	4919      	ldr	r1, [pc, #100]	; (10002a50 <__wrap_putchar+0x88>)
100029ec:	0008      	movs	r0, r1
100029ee:	4688      	mov	r8, r1
100029f0:	f000 f976 	bl	10002ce0 <__mutex_try_enter_block_until_veneer>
100029f4:	4b17      	ldr	r3, [pc, #92]	; (10002a54 <__wrap_putchar+0x8c>)
100029f6:	4681      	mov	r9, r0
100029f8:	681c      	ldr	r4, [r3, #0]
100029fa:	2c00      	cmp	r4, #0
100029fc:	d014      	beq.n	10002a28 <__wrap_putchar+0x60>
100029fe:	4f16      	ldr	r7, [pc, #88]	; (10002a58 <__wrap_putchar+0x90>)
10002a00:	e002      	b.n	10002a08 <__wrap_putchar+0x40>
10002a02:	6924      	ldr	r4, [r4, #16]
10002a04:	2c00      	cmp	r4, #0
10002a06:	d00f      	beq.n	10002a28 <__wrap_putchar+0x60>
10002a08:	6823      	ldr	r3, [r4, #0]
10002a0a:	2b00      	cmp	r3, #0
10002a0c:	d0f9      	beq.n	10002a02 <__wrap_putchar+0x3a>
10002a0e:	683b      	ldr	r3, [r7, #0]
10002a10:	2b00      	cmp	r3, #0
10002a12:	d001      	beq.n	10002a18 <__wrap_putchar+0x50>
10002a14:	42a3      	cmp	r3, r4
10002a16:	d1f4      	bne.n	10002a02 <__wrap_putchar+0x3a>
10002a18:	0020      	movs	r0, r4
10002a1a:	2201      	movs	r2, #1
10002a1c:	0029      	movs	r1, r5
10002a1e:	f7ff fefb 	bl	10002818 <stdio_out_chars_crlf>
10002a22:	6924      	ldr	r4, [r4, #16]
10002a24:	2c00      	cmp	r4, #0
10002a26:	d1ef      	bne.n	10002a08 <__wrap_putchar+0x40>
10002a28:	464b      	mov	r3, r9
10002a2a:	2b00      	cmp	r3, #0
10002a2c:	d105      	bne.n	10002a3a <__wrap_putchar+0x72>
10002a2e:	0030      	movs	r0, r6
10002a30:	b003      	add	sp, #12
10002a32:	bcc0      	pop	{r6, r7}
10002a34:	46b9      	mov	r9, r7
10002a36:	46b0      	mov	r8, r6
10002a38:	bdf0      	pop	{r4, r5, r6, r7, pc}
10002a3a:	4640      	mov	r0, r8
10002a3c:	f000 f938 	bl	10002cb0 <__mutex_exit_veneer>
10002a40:	e7f5      	b.n	10002a2e <__wrap_putchar+0x66>
10002a42:	2201      	movs	r2, #1
10002a44:	4b05      	ldr	r3, [pc, #20]	; (10002a5c <__wrap_putchar+0x94>)
10002a46:	4252      	negs	r2, r2
10002a48:	e7cf      	b.n	100029ea <__wrap_putchar+0x22>
10002a4a:	46c0      	nop			; (mov r8, r8)
10002a4c:	000f4240 	.word	0x000f4240
10002a50:	200003d8 	.word	0x200003d8
10002a54:	20000894 	.word	0x20000894
10002a58:	20000898 	.word	0x20000898
10002a5c:	7fffffff 	.word	0x7fffffff

10002a60 <__wrap_puts>:
10002a60:	b570      	push	{r4, r5, r6, lr}
10002a62:	0004      	movs	r4, r0
10002a64:	f000 f8f2 	bl	10002c4c <strlen>
10002a68:	2300      	movs	r3, #0
10002a6a:	0001      	movs	r1, r0
10002a6c:	0005      	movs	r5, r0
10002a6e:	2201      	movs	r2, #1
10002a70:	0020      	movs	r0, r4
10002a72:	f7ff ff2b 	bl	100028cc <stdio_put_string.isra.0>
10002a76:	4b08      	ldr	r3, [pc, #32]	; (10002a98 <__wrap_puts+0x38>)
10002a78:	681c      	ldr	r4, [r3, #0]
10002a7a:	2c00      	cmp	r4, #0
10002a7c:	d006      	beq.n	10002a8c <__wrap_puts+0x2c>
10002a7e:	6863      	ldr	r3, [r4, #4]
10002a80:	2b00      	cmp	r3, #0
10002a82:	d005      	beq.n	10002a90 <__wrap_puts+0x30>
10002a84:	4798      	blx	r3
10002a86:	6924      	ldr	r4, [r4, #16]
10002a88:	2c00      	cmp	r4, #0
10002a8a:	d1f8      	bne.n	10002a7e <__wrap_puts+0x1e>
10002a8c:	0028      	movs	r0, r5
10002a8e:	bd70      	pop	{r4, r5, r6, pc}
10002a90:	6924      	ldr	r4, [r4, #16]
10002a92:	2c00      	cmp	r4, #0
10002a94:	d1f3      	bne.n	10002a7e <__wrap_puts+0x1e>
10002a96:	e7f9      	b.n	10002a8c <__wrap_puts+0x2c>
10002a98:	20000894 	.word	0x20000894

10002a9c <dma_claim_unused_channel>:
10002a9c:	b500      	push	{lr}
10002a9e:	4b05      	ldr	r3, [pc, #20]	; (10002ab4 <dma_claim_unused_channel+0x18>)
10002aa0:	b083      	sub	sp, #12
10002aa2:	0001      	movs	r1, r0
10002aa4:	9300      	str	r3, [sp, #0]
10002aa6:	2200      	movs	r2, #0
10002aa8:	230b      	movs	r3, #11
10002aaa:	4803      	ldr	r0, [pc, #12]	; (10002ab8 <dma_claim_unused_channel+0x1c>)
10002aac:	f7fd fe94 	bl	100007d8 <hw_claim_unused_from_range>
10002ab0:	b003      	add	sp, #12
10002ab2:	bd00      	pop	{pc}
10002ab4:	10002dec 	.word	0x10002dec
10002ab8:	200008cc 	.word	0x200008cc

10002abc <pio_claim_unused_sm>:
10002abc:	4b0b      	ldr	r3, [pc, #44]	; (10002aec <pio_claim_unused_sm+0x30>)
10002abe:	b510      	push	{r4, lr}
10002ac0:	469c      	mov	ip, r3
10002ac2:	4460      	add	r0, ip
10002ac4:	4243      	negs	r3, r0
10002ac6:	4158      	adcs	r0, r3
10002ac8:	4a09      	ldr	r2, [pc, #36]	; (10002af0 <pio_claim_unused_sm+0x34>)
10002aca:	0084      	lsls	r4, r0, #2
10002acc:	b082      	sub	sp, #8
10002ace:	9200      	str	r2, [sp, #0]
10002ad0:	4808      	ldr	r0, [pc, #32]	; (10002af4 <pio_claim_unused_sm+0x38>)
10002ad2:	0022      	movs	r2, r4
10002ad4:	1ce3      	adds	r3, r4, #3
10002ad6:	f7fd fe7f 	bl	100007d8 <hw_claim_unused_from_range>
10002ada:	4284      	cmp	r4, r0
10002adc:	dc02      	bgt.n	10002ae4 <pio_claim_unused_sm+0x28>
10002ade:	1b00      	subs	r0, r0, r4
10002ae0:	b002      	add	sp, #8
10002ae2:	bd10      	pop	{r4, pc}
10002ae4:	2001      	movs	r0, #1
10002ae6:	4240      	negs	r0, r0
10002ae8:	e7fa      	b.n	10002ae0 <pio_claim_unused_sm+0x24>
10002aea:	46c0      	nop			; (mov r8, r8)
10002aec:	afd00000 	.word	0xafd00000
10002af0:	10002e0c 	.word	0x10002e0c
10002af4:	200008cf 	.word	0x200008cf

10002af8 <pio_add_program>:
10002af8:	b5f0      	push	{r4, r5, r6, r7, lr}
10002afa:	46d6      	mov	lr, sl
10002afc:	464f      	mov	r7, r9
10002afe:	4646      	mov	r6, r8
10002b00:	4688      	mov	r8, r1
10002b02:	b5c0      	push	{r6, r7, lr}
10002b04:	2405      	movs	r4, #5
10002b06:	0006      	movs	r6, r0
10002b08:	f7fd fe2e 	bl	10000768 <hw_claim_lock>
10002b0c:	4643      	mov	r3, r8
10002b0e:	791f      	ldrb	r7, [r3, #4]
10002b10:	571c      	ldrsb	r4, [r3, r4]
10002b12:	4b28      	ldr	r3, [pc, #160]	; (10002bb4 <pio_add_program+0xbc>)
10002b14:	4681      	mov	r9, r0
10002b16:	18f0      	adds	r0, r6, r3
10002b18:	4243      	negs	r3, r0
10002b1a:	4158      	adcs	r0, r3
10002b1c:	4b26      	ldr	r3, [pc, #152]	; (10002bb8 <pio_add_program+0xc0>)
10002b1e:	469a      	mov	sl, r3
10002b20:	0083      	lsls	r3, r0, #2
10002b22:	469c      	mov	ip, r3
10002b24:	4653      	mov	r3, sl
10002b26:	4662      	mov	r2, ip
10002b28:	5898      	ldr	r0, [r3, r2]
10002b2a:	2201      	movs	r2, #1
10002b2c:	2320      	movs	r3, #32
10002b2e:	40ba      	lsls	r2, r7
10002b30:	1bdb      	subs	r3, r3, r7
10002b32:	3a01      	subs	r2, #1
10002b34:	2c00      	cmp	r4, #0
10002b36:	db32      	blt.n	10002b9e <pio_add_program+0xa6>
10002b38:	429c      	cmp	r4, r3
10002b3a:	dc2d      	bgt.n	10002b98 <pio_add_program+0xa0>
10002b3c:	40a2      	lsls	r2, r4
10002b3e:	0015      	movs	r5, r2
10002b40:	4210      	tst	r0, r2
10002b42:	d129      	bne.n	10002b98 <pio_add_program+0xa0>
10002b44:	2f00      	cmp	r7, #0
10002b46:	d01a      	beq.n	10002b7e <pio_add_program+0x86>
10002b48:	4643      	mov	r3, r8
10002b4a:	785a      	ldrb	r2, [r3, #1]
10002b4c:	7819      	ldrb	r1, [r3, #0]
10002b4e:	0212      	lsls	r2, r2, #8
10002b50:	4311      	orrs	r1, r2
10002b52:	4642      	mov	r2, r8
10002b54:	789b      	ldrb	r3, [r3, #2]
10002b56:	78d2      	ldrb	r2, [r2, #3]
10002b58:	041b      	lsls	r3, r3, #16
10002b5a:	430b      	orrs	r3, r1
10002b5c:	0612      	lsls	r2, r2, #24
10002b5e:	431a      	orrs	r2, r3
10002b60:	4690      	mov	r8, r2
10002b62:	2200      	movs	r2, #0
10002b64:	4641      	mov	r1, r8
10002b66:	0053      	lsls	r3, r2, #1
10002b68:	5ac9      	ldrh	r1, [r1, r3]
10002b6a:	0b4b      	lsrs	r3, r1, #13
10002b6c:	d100      	bne.n	10002b70 <pio_add_program+0x78>
10002b6e:	1909      	adds	r1, r1, r4
10002b70:	1913      	adds	r3, r2, r4
10002b72:	3312      	adds	r3, #18
10002b74:	009b      	lsls	r3, r3, #2
10002b76:	3201      	adds	r2, #1
10002b78:	5199      	str	r1, [r3, r6]
10002b7a:	4297      	cmp	r7, r2
10002b7c:	d8f2      	bhi.n	10002b64 <pio_add_program+0x6c>
10002b7e:	4653      	mov	r3, sl
10002b80:	4662      	mov	r2, ip
10002b82:	4305      	orrs	r5, r0
10002b84:	509d      	str	r5, [r3, r2]
10002b86:	4648      	mov	r0, r9
10002b88:	f7fd fdfa 	bl	10000780 <hw_claim_unlock>
10002b8c:	0020      	movs	r0, r4
10002b8e:	bce0      	pop	{r5, r6, r7}
10002b90:	46ba      	mov	sl, r7
10002b92:	46b1      	mov	r9, r6
10002b94:	46a8      	mov	r8, r5
10002b96:	bdf0      	pop	{r4, r5, r6, r7, pc}
10002b98:	4808      	ldr	r0, [pc, #32]	; (10002bbc <pio_add_program+0xc4>)
10002b9a:	f7ff f88b 	bl	10001cb4 <panic>
10002b9e:	2b00      	cmp	r3, #0
10002ba0:	da02      	bge.n	10002ba8 <pio_add_program+0xb0>
10002ba2:	e7f9      	b.n	10002b98 <pio_add_program+0xa0>
10002ba4:	3b01      	subs	r3, #1
10002ba6:	d3f7      	bcc.n	10002b98 <pio_add_program+0xa0>
10002ba8:	0015      	movs	r5, r2
10002baa:	409d      	lsls	r5, r3
10002bac:	001c      	movs	r4, r3
10002bae:	4205      	tst	r5, r0
10002bb0:	d1f8      	bne.n	10002ba4 <pio_add_program+0xac>
10002bb2:	e7c7      	b.n	10002b44 <pio_add_program+0x4c>
10002bb4:	afd00000 	.word	0xafd00000
10002bb8:	20000814 	.word	0x20000814
10002bbc:	10002e30 	.word	0x10002e30

10002bc0 <pio_sm_init>:
10002bc0:	b5f0      	push	{r4, r5, r6, r7, lr}
10002bc2:	2501      	movs	r5, #1
10002bc4:	408d      	lsls	r5, r1
10002bc6:	6804      	ldr	r4, [r0, #0]
10002bc8:	43ac      	bics	r4, r5
10002bca:	004d      	lsls	r5, r1, #1
10002bcc:	6004      	str	r4, [r0, #0]
10002bce:	186c      	adds	r4, r5, r1
10002bd0:	00e4      	lsls	r4, r4, #3
10002bd2:	1904      	adds	r4, r0, r4
10002bd4:	0026      	movs	r6, r4
10002bd6:	36c8      	adds	r6, #200	; 0xc8
10002bd8:	2b00      	cmp	r3, #0
10002bda:	d028      	beq.n	10002c2e <pio_sm_init+0x6e>
10002bdc:	681f      	ldr	r7, [r3, #0]
10002bde:	34dc      	adds	r4, #220	; 0xdc
10002be0:	6037      	str	r7, [r6, #0]
10002be2:	685f      	ldr	r7, [r3, #4]
10002be4:	6077      	str	r7, [r6, #4]
10002be6:	689f      	ldr	r7, [r3, #8]
10002be8:	68db      	ldr	r3, [r3, #12]
10002bea:	60b7      	str	r7, [r6, #8]
10002bec:	6023      	str	r3, [r4, #0]
10002bee:	186d      	adds	r5, r5, r1
10002bf0:	00eb      	lsls	r3, r5, #3
10002bf2:	001d      	movs	r5, r3
10002bf4:	2480      	movs	r4, #128	; 0x80
10002bf6:	35d0      	adds	r5, #208	; 0xd0
10002bf8:	1945      	adds	r5, r0, r5
10002bfa:	0164      	lsls	r4, r4, #5
10002bfc:	432c      	orrs	r4, r5
10002bfe:	2580      	movs	r5, #128	; 0x80
10002c00:	062d      	lsls	r5, r5, #24
10002c02:	6025      	str	r5, [r4, #0]
10002c04:	6025      	str	r5, [r4, #0]
10002c06:	2501      	movs	r5, #1
10002c08:	4c0f      	ldr	r4, [pc, #60]	; (10002c48 <pio_sm_init+0x88>)
10002c0a:	002e      	movs	r6, r5
10002c0c:	408c      	lsls	r4, r1
10002c0e:	6084      	str	r4, [r0, #8]
10002c10:	1d0c      	adds	r4, r1, #4
10002c12:	40a6      	lsls	r6, r4
10002c14:	2480      	movs	r4, #128	; 0x80
10002c16:	3108      	adds	r1, #8
10002c18:	408d      	lsls	r5, r1
10002c1a:	211f      	movs	r1, #31
10002c1c:	01a4      	lsls	r4, r4, #6
10002c1e:	4304      	orrs	r4, r0
10002c20:	18c0      	adds	r0, r0, r3
10002c22:	400a      	ands	r2, r1
10002c24:	30d8      	adds	r0, #216	; 0xd8
10002c26:	6026      	str	r6, [r4, #0]
10002c28:	6025      	str	r5, [r4, #0]
10002c2a:	6002      	str	r2, [r0, #0]
10002c2c:	bdf0      	pop	{r4, r5, r6, r7, pc}
10002c2e:	2780      	movs	r7, #128	; 0x80
10002c30:	027f      	lsls	r7, r7, #9
10002c32:	6037      	str	r7, [r6, #0]
10002c34:	27f8      	movs	r7, #248	; 0xf8
10002c36:	027f      	lsls	r7, r7, #9
10002c38:	6077      	str	r7, [r6, #4]
10002c3a:	27c0      	movs	r7, #192	; 0xc0
10002c3c:	34dc      	adds	r4, #220	; 0xdc
10002c3e:	033f      	lsls	r7, r7, #12
10002c40:	60b7      	str	r7, [r6, #8]
10002c42:	6023      	str	r3, [r4, #0]
10002c44:	e7d3      	b.n	10002bee <pio_sm_init+0x2e>
10002c46:	46c0      	nop			; (mov r8, r8)
10002c48:	01010101 	.word	0x01010101

10002c4c <strlen>:
10002c4c:	b510      	push	{r4, lr}
10002c4e:	0783      	lsls	r3, r0, #30
10002c50:	d00a      	beq.n	10002c68 <strlen+0x1c>
10002c52:	0003      	movs	r3, r0
10002c54:	2103      	movs	r1, #3
10002c56:	e002      	b.n	10002c5e <strlen+0x12>
10002c58:	3301      	adds	r3, #1
10002c5a:	420b      	tst	r3, r1
10002c5c:	d005      	beq.n	10002c6a <strlen+0x1e>
10002c5e:	781a      	ldrb	r2, [r3, #0]
10002c60:	2a00      	cmp	r2, #0
10002c62:	d1f9      	bne.n	10002c58 <strlen+0xc>
10002c64:	1a18      	subs	r0, r3, r0
10002c66:	bd10      	pop	{r4, pc}
10002c68:	0003      	movs	r3, r0
10002c6a:	6819      	ldr	r1, [r3, #0]
10002c6c:	4a0c      	ldr	r2, [pc, #48]	; (10002ca0 <strlen+0x54>)
10002c6e:	4c0d      	ldr	r4, [pc, #52]	; (10002ca4 <strlen+0x58>)
10002c70:	188a      	adds	r2, r1, r2
10002c72:	438a      	bics	r2, r1
10002c74:	4222      	tst	r2, r4
10002c76:	d10f      	bne.n	10002c98 <strlen+0x4c>
10002c78:	6859      	ldr	r1, [r3, #4]
10002c7a:	4a09      	ldr	r2, [pc, #36]	; (10002ca0 <strlen+0x54>)
10002c7c:	3304      	adds	r3, #4
10002c7e:	188a      	adds	r2, r1, r2
10002c80:	438a      	bics	r2, r1
10002c82:	4222      	tst	r2, r4
10002c84:	d108      	bne.n	10002c98 <strlen+0x4c>
10002c86:	6859      	ldr	r1, [r3, #4]
10002c88:	4a05      	ldr	r2, [pc, #20]	; (10002ca0 <strlen+0x54>)
10002c8a:	3304      	adds	r3, #4
10002c8c:	188a      	adds	r2, r1, r2
10002c8e:	438a      	bics	r2, r1
10002c90:	4222      	tst	r2, r4
10002c92:	d0f1      	beq.n	10002c78 <strlen+0x2c>
10002c94:	e000      	b.n	10002c98 <strlen+0x4c>
10002c96:	3301      	adds	r3, #1
10002c98:	781a      	ldrb	r2, [r3, #0]
10002c9a:	2a00      	cmp	r2, #0
10002c9c:	d1fb      	bne.n	10002c96 <strlen+0x4a>
10002c9e:	e7e1      	b.n	10002c64 <strlen+0x18>
10002ca0:	fefefeff 	.word	0xfefefeff
10002ca4:	80808080 	.word	0x80808080

10002ca8 <_fini>:
10002ca8:	b5f8      	push	{r3, r4, r5, r6, r7, lr}
10002caa:	46c0      	nop			; (mov r8, r8)
10002cac:	0000      	movs	r0, r0
	...

10002cb0 <__mutex_exit_veneer>:
10002cb0:	b401      	push	{r0}
10002cb2:	4802      	ldr	r0, [pc, #8]	; (10002cbc <__mutex_exit_veneer+0xc>)
10002cb4:	4684      	mov	ip, r0
10002cb6:	bc01      	pop	{r0}
10002cb8:	4760      	bx	ip
10002cba:	bf00      	nop
10002cbc:	2000015d 	.word	0x2000015d

10002cc0 <__nearbyint_veneer>:
10002cc0:	b401      	push	{r0}
10002cc2:	4802      	ldr	r0, [pc, #8]	; (10002ccc <__nearbyint_veneer+0xc>)
10002cc4:	4684      	mov	ip, r0
10002cc6:	bc01      	pop	{r0}
10002cc8:	4760      	bx	ip
10002cca:	bf00      	nop
10002ccc:	20000185 	.word	0x20000185

10002cd0 <____aeabi_idiv0_veneer>:
10002cd0:	b401      	push	{r0}
10002cd2:	4802      	ldr	r0, [pc, #8]	; (10002cdc <____aeabi_idiv0_veneer+0xc>)
10002cd4:	4684      	mov	ip, r0
10002cd6:	bc01      	pop	{r0}
10002cd8:	4760      	bx	ip
10002cda:	bf00      	nop
10002cdc:	200002d1 	.word	0x200002d1

10002ce0 <__mutex_try_enter_block_until_veneer>:
10002ce0:	b401      	push	{r0}
10002ce2:	4802      	ldr	r0, [pc, #8]	; (10002cec <__mutex_try_enter_block_until_veneer+0xc>)
10002ce4:	4684      	mov	ip, r0
10002ce6:	bc01      	pop	{r0}
10002ce8:	4760      	bx	ip
10002cea:	bf00      	nop
10002cec:	200000c1 	.word	0x200000c1

Disassembly of section .data:

200000c0 <mutex_try_enter_block_until>:
200000c0:	b5f0      	push	{r4, r5, r6, r7, lr}
200000c2:	46c6      	mov	lr, r8
200000c4:	0015      	movs	r5, r2
200000c6:	b500      	push	{lr}
200000c8:	0004      	movs	r4, r0
200000ca:	001e      	movs	r6, r3
200000cc:	6802      	ldr	r2, [r0, #0]
200000ce:	f3ef 8110 	mrs	r1, PRIMASK
200000d2:	b672      	cpsid	i
200000d4:	6813      	ldr	r3, [r2, #0]
200000d6:	2b00      	cmp	r3, #0
200000d8:	d0fc      	beq.n	200000d4 <mutex_try_enter_block_until+0x14>
200000da:	f3bf 8f5f 	dmb	sy
200000de:	2304      	movs	r3, #4
200000e0:	56e3      	ldrsb	r3, [r4, r3]
200000e2:	2b00      	cmp	r3, #0
200000e4:	db2d      	blt.n	20000142 <mutex_try_enter_block_until+0x82>
200000e6:	6822      	ldr	r2, [r4, #0]
200000e8:	f3bf 8f5f 	dmb	sy
200000ec:	2000      	movs	r0, #0
200000ee:	6010      	str	r0, [r2, #0]
200000f0:	f381 8810 	msr	PRIMASK, r1
200000f4:	22d0      	movs	r2, #208	; 0xd0
200000f6:	0612      	lsls	r2, r2, #24
200000f8:	7812      	ldrb	r2, [r2, #0]
200000fa:	b252      	sxtb	r2, r2
200000fc:	4690      	mov	r8, r2
200000fe:	429a      	cmp	r2, r3
20000100:	d103      	bne.n	2000010a <mutex_try_enter_block_until+0x4a>
20000102:	2000      	movs	r0, #0
20000104:	bc80      	pop	{r7}
20000106:	46b8      	mov	r8, r7
20000108:	bdf0      	pop	{r4, r5, r6, r7, pc}
2000010a:	2700      	movs	r7, #0
2000010c:	e00b      	b.n	20000126 <mutex_try_enter_block_until+0x66>
2000010e:	6823      	ldr	r3, [r4, #0]
20000110:	f3bf 8f5f 	dmb	sy
20000114:	601f      	str	r7, [r3, #0]
20000116:	f381 8810 	msr	PRIMASK, r1
2000011a:	0028      	movs	r0, r5
2000011c:	0031      	movs	r1, r6
2000011e:	f000 f8eb 	bl	200002f8 <__best_effort_wfe_or_timeout_veneer>
20000122:	2800      	cmp	r0, #0
20000124:	d1ed      	bne.n	20000102 <mutex_try_enter_block_until+0x42>
20000126:	6822      	ldr	r2, [r4, #0]
20000128:	f3ef 8110 	mrs	r1, PRIMASK
2000012c:	b672      	cpsid	i
2000012e:	6813      	ldr	r3, [r2, #0]
20000130:	2b00      	cmp	r3, #0
20000132:	d0fc      	beq.n	2000012e <mutex_try_enter_block_until+0x6e>
20000134:	f3bf 8f5f 	dmb	sy
20000138:	7923      	ldrb	r3, [r4, #4]
2000013a:	2b7f      	cmp	r3, #127	; 0x7f
2000013c:	d9e7      	bls.n	2000010e <mutex_try_enter_block_until+0x4e>
2000013e:	4643      	mov	r3, r8
20000140:	e002      	b.n	20000148 <mutex_try_enter_block_until+0x88>
20000142:	23d0      	movs	r3, #208	; 0xd0
20000144:	061b      	lsls	r3, r3, #24
20000146:	681b      	ldr	r3, [r3, #0]
20000148:	7123      	strb	r3, [r4, #4]
2000014a:	6823      	ldr	r3, [r4, #0]
2000014c:	f3bf 8f5f 	dmb	sy
20000150:	2200      	movs	r2, #0
20000152:	601a      	str	r2, [r3, #0]
20000154:	f381 8810 	msr	PRIMASK, r1
20000158:	2001      	movs	r0, #1
2000015a:	e7d3      	b.n	20000104 <mutex_try_enter_block_until+0x44>

2000015c <mutex_exit>:
2000015c:	6802      	ldr	r2, [r0, #0]
2000015e:	f3ef 8110 	mrs	r1, PRIMASK
20000162:	b672      	cpsid	i
20000164:	6813      	ldr	r3, [r2, #0]
20000166:	2b00      	cmp	r3, #0
20000168:	d0fc      	beq.n	20000164 <mutex_exit+0x8>
2000016a:	f3bf 8f5f 	dmb	sy
2000016e:	23ff      	movs	r3, #255	; 0xff
20000170:	7103      	strb	r3, [r0, #4]
20000172:	6803      	ldr	r3, [r0, #0]
20000174:	f3bf 8f5f 	dmb	sy
20000178:	2200      	movs	r2, #0
2000017a:	601a      	str	r2, [r3, #0]
2000017c:	f381 8810 	msr	PRIMASK, r1
20000180:	bf40      	sev
20000182:	4770      	bx	lr

20000184 <nearbyint>:
20000184:	b510      	push	{r4, lr}
20000186:	f000 f801 	bl	2000018c <rint>
2000018a:	bd10      	pop	{r4, pc}

2000018c <rint>:
2000018c:	b5f0      	push	{r4, r5, r6, r7, lr}
2000018e:	46ce      	mov	lr, r9
20000190:	4647      	mov	r7, r8
20000192:	b580      	push	{r7, lr}
20000194:	0fca      	lsrs	r2, r1, #31
20000196:	000b      	movs	r3, r1
20000198:	000f      	movs	r7, r1
2000019a:	4691      	mov	r9, r2
2000019c:	004a      	lsls	r2, r1, #1
2000019e:	4947      	ldr	r1, [pc, #284]	; (200002bc <rint+0x130>)
200001a0:	0d52      	lsrs	r2, r2, #21
200001a2:	1856      	adds	r6, r2, r1
200001a4:	0004      	movs	r4, r0
200001a6:	0005      	movs	r5, r0
200001a8:	b083      	sub	sp, #12
200001aa:	2e13      	cmp	r6, #19
200001ac:	dc64      	bgt.n	20000278 <rint+0xec>
200001ae:	2e00      	cmp	r6, #0
200001b0:	db35      	blt.n	2000021e <rint+0x92>
200001b2:	4d43      	ldr	r5, [pc, #268]	; (200002c0 <rint+0x134>)
200001b4:	4135      	asrs	r5, r6
200001b6:	0029      	movs	r1, r5
200001b8:	4019      	ands	r1, r3
200001ba:	4301      	orrs	r1, r0
200001bc:	4688      	mov	r8, r1
200001be:	46ac      	mov	ip, r5
200001c0:	4645      	mov	r5, r8
200001c2:	0020      	movs	r0, r4
200001c4:	0019      	movs	r1, r3
200001c6:	2d00      	cmp	r5, #0
200001c8:	d024      	beq.n	20000214 <rint+0x88>
200001ca:	4661      	mov	r1, ip
200001cc:	0849      	lsrs	r1, r1, #1
200001ce:	000d      	movs	r5, r1
200001d0:	401d      	ands	r5, r3
200001d2:	4325      	orrs	r5, r4
200001d4:	d00a      	beq.n	200001ec <rint+0x60>
200001d6:	483b      	ldr	r0, [pc, #236]	; (200002c4 <rint+0x138>)
200001d8:	2780      	movs	r7, #128	; 0x80
200001da:	4684      	mov	ip, r0
200001dc:	02ff      	lsls	r7, r7, #11
200001de:	4462      	add	r2, ip
200001e0:	4250      	negs	r0, r2
200001e2:	4142      	adcs	r2, r0
200001e4:	4137      	asrs	r7, r6
200001e6:	438b      	bics	r3, r1
200001e8:	07d5      	lsls	r5, r2, #31
200001ea:	431f      	orrs	r7, r3
200001ec:	4649      	mov	r1, r9
200001ee:	00ce      	lsls	r6, r1, #3
200001f0:	4935      	ldr	r1, [pc, #212]	; (200002c8 <rint+0x13c>)
200001f2:	002a      	movs	r2, r5
200001f4:	198e      	adds	r6, r1, r6
200001f6:	6834      	ldr	r4, [r6, #0]
200001f8:	6875      	ldr	r5, [r6, #4]
200001fa:	003b      	movs	r3, r7
200001fc:	0020      	movs	r0, r4
200001fe:	0029      	movs	r1, r5
20000200:	f000 f86a 	bl	200002d8 <____wrap___aeabi_dadd_veneer>
20000204:	9000      	str	r0, [sp, #0]
20000206:	9101      	str	r1, [sp, #4]
20000208:	9800      	ldr	r0, [sp, #0]
2000020a:	9901      	ldr	r1, [sp, #4]
2000020c:	0022      	movs	r2, r4
2000020e:	002b      	movs	r3, r5
20000210:	f000 f86a 	bl	200002e8 <____wrap___aeabi_dsub_veneer>
20000214:	b003      	add	sp, #12
20000216:	bcc0      	pop	{r6, r7}
20000218:	46b9      	mov	r9, r7
2000021a:	46b0      	mov	r8, r6
2000021c:	bdf0      	pop	{r4, r5, r6, r7, pc}
2000021e:	005a      	lsls	r2, r3, #1
20000220:	0852      	lsrs	r2, r2, #1
20000222:	4302      	orrs	r2, r0
20000224:	0019      	movs	r1, r3
20000226:	0020      	movs	r0, r4
20000228:	2a00      	cmp	r2, #0
2000022a:	d0f3      	beq.n	20000214 <rint+0x88>
2000022c:	031a      	lsls	r2, r3, #12
2000022e:	0b12      	lsrs	r2, r2, #12
20000230:	4322      	orrs	r2, r4
20000232:	4253      	negs	r3, r2
20000234:	4649      	mov	r1, r9
20000236:	4313      	orrs	r3, r2
20000238:	2280      	movs	r2, #128	; 0x80
2000023a:	00c8      	lsls	r0, r1, #3
2000023c:	0312      	lsls	r2, r2, #12
2000023e:	4922      	ldr	r1, [pc, #136]	; (200002c8 <rint+0x13c>)
20000240:	0b1b      	lsrs	r3, r3, #12
20000242:	4013      	ands	r3, r2
20000244:	0c7a      	lsrs	r2, r7, #17
20000246:	1809      	adds	r1, r1, r0
20000248:	0452      	lsls	r2, r2, #17
2000024a:	4313      	orrs	r3, r2
2000024c:	0022      	movs	r2, r4
2000024e:	680c      	ldr	r4, [r1, #0]
20000250:	684d      	ldr	r5, [r1, #4]
20000252:	0020      	movs	r0, r4
20000254:	0029      	movs	r1, r5
20000256:	f000 f83f 	bl	200002d8 <____wrap___aeabi_dadd_veneer>
2000025a:	9000      	str	r0, [sp, #0]
2000025c:	9101      	str	r1, [sp, #4]
2000025e:	9800      	ldr	r0, [sp, #0]
20000260:	9901      	ldr	r1, [sp, #4]
20000262:	0022      	movs	r2, r4
20000264:	002b      	movs	r3, r5
20000266:	f000 f83f 	bl	200002e8 <____wrap___aeabi_dsub_veneer>
2000026a:	464a      	mov	r2, r9
2000026c:	004b      	lsls	r3, r1, #1
2000026e:	085b      	lsrs	r3, r3, #1
20000270:	07d6      	lsls	r6, r2, #31
20000272:	4333      	orrs	r3, r6
20000274:	0019      	movs	r1, r3
20000276:	e7cd      	b.n	20000214 <rint+0x88>
20000278:	2e33      	cmp	r6, #51	; 0x33
2000027a:	dd09      	ble.n	20000290 <rint+0x104>
2000027c:	2280      	movs	r2, #128	; 0x80
2000027e:	0020      	movs	r0, r4
20000280:	0019      	movs	r1, r3
20000282:	00d2      	lsls	r2, r2, #3
20000284:	4296      	cmp	r6, r2
20000286:	d1c5      	bne.n	20000214 <rint+0x88>
20000288:	0022      	movs	r2, r4
2000028a:	f000 f825 	bl	200002d8 <____wrap___aeabi_dadd_veneer>
2000028e:	e7c1      	b.n	20000214 <rint+0x88>
20000290:	490e      	ldr	r1, [pc, #56]	; (200002cc <rint+0x140>)
20000292:	0020      	movs	r0, r4
20000294:	468c      	mov	ip, r1
20000296:	4494      	add	ip, r2
20000298:	2201      	movs	r2, #1
2000029a:	4661      	mov	r1, ip
2000029c:	4252      	negs	r2, r2
2000029e:	40ca      	lsrs	r2, r1
200002a0:	0019      	movs	r1, r3
200002a2:	4222      	tst	r2, r4
200002a4:	d0b6      	beq.n	20000214 <rint+0x88>
200002a6:	0852      	lsrs	r2, r2, #1
200002a8:	4222      	tst	r2, r4
200002aa:	d09f      	beq.n	200001ec <rint+0x60>
200002ac:	2580      	movs	r5, #128	; 0x80
200002ae:	4663      	mov	r3, ip
200002b0:	05ed      	lsls	r5, r5, #23
200002b2:	411d      	asrs	r5, r3
200002b4:	4394      	bics	r4, r2
200002b6:	4325      	orrs	r5, r4
200002b8:	e798      	b.n	200001ec <rint+0x60>
200002ba:	46c0      	nop			; (mov r8, r8)
200002bc:	fffffc01 	.word	0xfffffc01
200002c0:	000fffff 	.word	0x000fffff
200002c4:	fffffbee 	.word	0xfffffbee
200002c8:	20000308 	.word	0x20000308
200002cc:	fffffbed 	.word	0xfffffbed

200002d0 <__aeabi_idiv0>:
200002d0:	4770      	bx	lr
200002d2:	46c0      	nop			; (mov r8, r8)
200002d4:	0000      	movs	r0, r0
	...

200002d8 <____wrap___aeabi_dadd_veneer>:
200002d8:	b401      	push	{r0}
200002da:	4802      	ldr	r0, [pc, #8]	; (200002e4 <____wrap___aeabi_dadd_veneer+0xc>)
200002dc:	4684      	mov	ip, r0
200002de:	bc01      	pop	{r0}
200002e0:	4760      	bx	ip
200002e2:	bf00      	nop
200002e4:	10001e59 	.word	0x10001e59

200002e8 <____wrap___aeabi_dsub_veneer>:
200002e8:	b401      	push	{r0}
200002ea:	4802      	ldr	r0, [pc, #8]	; (200002f4 <____wrap___aeabi_dsub_veneer+0xc>)
200002ec:	4684      	mov	ip, r0
200002ee:	bc01      	pop	{r0}
200002f0:	4760      	bx	ip
200002f2:	bf00      	nop
200002f4:	10001e47 	.word	0x10001e47

200002f8 <__best_effort_wfe_or_timeout_veneer>:
200002f8:	b401      	push	{r0}
200002fa:	4802      	ldr	r0, [pc, #8]	; (20000304 <__best_effort_wfe_or_timeout_veneer+0xc>)
200002fc:	4684      	mov	ip, r0
200002fe:	bc01      	pop	{r0}
20000300:	4760      	bx	ip
20000302:	bf00      	nop
20000304:	10001105 	.word	0x10001105

20000308 <TWO52>:
20000308:	00000000 43300000 00000000 c3300000     ......0C......0.

20000318 <cldiv>:
20000318:	00000001                                ....

2000031c <feq>:
2000031c:	00000001                                ....

20000320 <phpin0>:
20000320:	00000002                                ....

20000324 <phpin1>:
20000324:	00000004                                ....

20000328 <phpin2>:
20000328:	00000006                                ....

2000032c <rotpin>:
2000032c:	00000008                                ....

20000330 <striped_spin_lock_num>:
20000330:	00000010                                ....

20000334 <irq_handler_chain_slots>:
20000334:	00000000 	.word	0x00000000
20000338:	00010000 	.word	0x00010000
	...
20000344:	00020000 	.word	0x00020000
	...
20000350:	00030000 	.word	0x00030000
	...
2000035c:	00ff0000 	.word	0x00ff0000
20000360:	00000000 	.word	0x00000000

20000364 <irq_handler_chain_first_slot>:
20000364:	b501      	push	{r0, lr}
20000366:	6848      	ldr	r0, [r1, #4]
20000368:	3101      	adds	r1, #1
2000036a:	468e      	mov	lr, r1
2000036c:	4700      	bx	r0

2000036e <irq_handler_chain_remove_tail>:
2000036e:	4670      	mov	r0, lr
20000370:	3809      	subs	r0, #9
20000372:	4901      	ldr	r1, [pc, #4]	; (20000378 <irq_handler_chain_remove_tail+0xa>)
20000374:	4788      	blx	r1
20000376:	bd01      	pop	{r0, pc}
20000378:	10000ae1 	.word	0x10000ae1

2000037c <default_alarm_pool>:
2000037c:	20000394 00000000 200003f8 20000854     ... ....... T.. 
	...

20000394 <default_alarm_pool_heap>:
20000394:	20000864 00000000 00000000 00000010     d.. ............
	...

200003b0 <aeabi_bits_funcs>:
200003b0:	00003350 	.word	0x00003350
200003b4:	0000334c 	.word	0x0000334c
200003b8:	00003354 	.word	0x00003354
200003bc:	00003352 	.word	0x00003352

200003c0 <aeabi_bits_funcs_end>:
200003c0:	0000534d 	.word	0x0000534d
200003c4:	0000434d 	.word	0x0000434d
200003c8:	00003453 	.word	0x00003453
200003cc:	00003443 	.word	0x00003443

200003d0 <malloc_mutex>:
	...

200003d8 <print_mutex>:
	...

200003e0 <__mutex_array_end>:
200003e0:	100027ed 	.word	0x100027ed
200003e4:	10001d31 	.word	0x10001d31
200003e8:	10001f59 	.word	0x10001f59
200003ec:	100025d5 	.word	0x100025d5

200003f0 <__frame_dummy_init_array_entry>:
200003f0:	10000331                                1...
